Archive member included to satisfy reference by file (symbol)

/usr/local/Caskroom/gcc-arm-embedded/9-2019-q4-major/gcc-arm-none-eabi-9-2019-q4-major/bin/../lib/gcc/arm-none-eabi/9.2.1/../../../../arm-none-eabi/lib/thumb/v7e-m+fp/hard/libc_nano.a(lib_a-exit.o)
                              /usr/local/Caskroom/gcc-arm-embedded/9-2019-q4-major/gcc-arm-none-eabi-9-2019-q4-major/bin/../lib/gcc/arm-none-eabi/9.2.1/../../../../arm-none-eabi/lib/thumb/v7e-m+fp/hard/crt0.o (exit)
/usr/local/Caskroom/gcc-arm-embedded/9-2019-q4-major/gcc-arm-none-eabi-9-2019-q4-major/bin/../lib/gcc/arm-none-eabi/9.2.1/../../../../arm-none-eabi/lib/thumb/v7e-m+fp/hard/libc_nano.a(lib_a-impure.o)
                              /usr/local/Caskroom/gcc-arm-embedded/9-2019-q4-major/gcc-arm-none-eabi-9-2019-q4-major/bin/../lib/gcc/arm-none-eabi/9.2.1/../../../../arm-none-eabi/lib/thumb/v7e-m+fp/hard/libc_nano.a(lib_a-exit.o) (_global_impure_ptr)
/usr/local/Caskroom/gcc-arm-embedded/9-2019-q4-major/gcc-arm-none-eabi-9-2019-q4-major/bin/../lib/gcc/arm-none-eabi/9.2.1/../../../../arm-none-eabi/lib/thumb/v7e-m+fp/hard/libc_nano.a(lib_a-init.o)
                              /usr/local/Caskroom/gcc-arm-embedded/9-2019-q4-major/gcc-arm-none-eabi-9-2019-q4-major/bin/../lib/gcc/arm-none-eabi/9.2.1/../../../../arm-none-eabi/lib/thumb/v7e-m+fp/hard/crt0.o (__libc_init_array)
/usr/local/Caskroom/gcc-arm-embedded/9-2019-q4-major/gcc-arm-none-eabi-9-2019-q4-major/bin/../lib/gcc/arm-none-eabi/9.2.1/../../../../arm-none-eabi/lib/thumb/v7e-m+fp/hard/libc_nano.a(lib_a-memcmp.o)
                              build/FreeRTOS_ARP.o (memcmp)
/usr/local/Caskroom/gcc-arm-embedded/9-2019-q4-major/gcc-arm-none-eabi-9-2019-q4-major/bin/../lib/gcc/arm-none-eabi/9.2.1/../../../../arm-none-eabi/lib/thumb/v7e-m+fp/hard/libc_nano.a(lib_a-memcpy-stub.o)
                              build/queue.o (memcpy)
/usr/local/Caskroom/gcc-arm-embedded/9-2019-q4-major/gcc-arm-none-eabi-9-2019-q4-major/bin/../lib/gcc/arm-none-eabi/9.2.1/../../../../arm-none-eabi/lib/thumb/v7e-m+fp/hard/libc_nano.a(lib_a-memmove.o)
                              build/FreeRTOS_IP.o (memmove)
/usr/local/Caskroom/gcc-arm-embedded/9-2019-q4-major/gcc-arm-none-eabi-9-2019-q4-major/bin/../lib/gcc/arm-none-eabi/9.2.1/../../../../arm-none-eabi/lib/thumb/v7e-m+fp/hard/libc_nano.a(lib_a-memset.o)
                              /usr/local/Caskroom/gcc-arm-embedded/9-2019-q4-major/gcc-arm-none-eabi-9-2019-q4-major/bin/../lib/gcc/arm-none-eabi/9.2.1/../../../../arm-none-eabi/lib/thumb/v7e-m+fp/hard/crt0.o (memset)
/usr/local/Caskroom/gcc-arm-embedded/9-2019-q4-major/gcc-arm-none-eabi-9-2019-q4-major/bin/../lib/gcc/arm-none-eabi/9.2.1/../../../../arm-none-eabi/lib/thumb/v7e-m+fp/hard/libc_nano.a(lib_a-snprintf.o)
                              build/FreeRTOS_IP.o (snprintf)
/usr/local/Caskroom/gcc-arm-embedded/9-2019-q4-major/gcc-arm-none-eabi-9-2019-q4-major/bin/../lib/gcc/arm-none-eabi/9.2.1/../../../../arm-none-eabi/lib/thumb/v7e-m+fp/hard/libc_nano.a(lib_a-sprintf.o)
                              build/tasks.o (sprintf)
/usr/local/Caskroom/gcc-arm-embedded/9-2019-q4-major/gcc-arm-none-eabi-9-2019-q4-major/bin/../lib/gcc/arm-none-eabi/9.2.1/../../../../arm-none-eabi/lib/thumb/v7e-m+fp/hard/libc_nano.a(lib_a-strcmp.o)
                              build/FreeRTOS_DNS.o (strcmp)
/usr/local/Caskroom/gcc-arm-embedded/9-2019-q4-major/gcc-arm-none-eabi-9-2019-q4-major/bin/../lib/gcc/arm-none-eabi/9.2.1/../../../../arm-none-eabi/lib/thumb/v7e-m+fp/hard/libc_nano.a(lib_a-strcpy.o)
                              build/tasks.o (strcpy)
/usr/local/Caskroom/gcc-arm-embedded/9-2019-q4-major/gcc-arm-none-eabi-9-2019-q4-major/bin/../lib/gcc/arm-none-eabi/9.2.1/../../../../arm-none-eabi/lib/thumb/v7e-m+fp/hard/libc_nano.a(lib_a-strlen.o)
                              build/tasks.o (strlen)
/usr/local/Caskroom/gcc-arm-embedded/9-2019-q4-major/gcc-arm-none-eabi-9-2019-q4-major/bin/../lib/gcc/arm-none-eabi/9.2.1/../../../../arm-none-eabi/lib/thumb/v7e-m+fp/hard/libc_nano.a(lib_a-vsnprintf.o)
                              build/logging.o (vsnprintf)
/usr/local/Caskroom/gcc-arm-embedded/9-2019-q4-major/gcc-arm-none-eabi-9-2019-q4-major/bin/../lib/gcc/arm-none-eabi/9.2.1/../../../../arm-none-eabi/lib/thumb/v7e-m+fp/hard/libc_nano.a(lib_a-nano-svfprintf.o)
                              /usr/local/Caskroom/gcc-arm-embedded/9-2019-q4-major/gcc-arm-none-eabi-9-2019-q4-major/bin/../lib/gcc/arm-none-eabi/9.2.1/../../../../arm-none-eabi/lib/thumb/v7e-m+fp/hard/libc_nano.a(lib_a-snprintf.o) (_svfprintf_r)
/usr/local/Caskroom/gcc-arm-embedded/9-2019-q4-major/gcc-arm-none-eabi-9-2019-q4-major/bin/../lib/gcc/arm-none-eabi/9.2.1/../../../../arm-none-eabi/lib/thumb/v7e-m+fp/hard/libc_nano.a(lib_a-nano-vfprintf_i.o)
                              /usr/local/Caskroom/gcc-arm-embedded/9-2019-q4-major/gcc-arm-none-eabi-9-2019-q4-major/bin/../lib/gcc/arm-none-eabi/9.2.1/../../../../arm-none-eabi/lib/thumb/v7e-m+fp/hard/libc_nano.a(lib_a-nano-svfprintf.o) (_printf_i)
/usr/local/Caskroom/gcc-arm-embedded/9-2019-q4-major/gcc-arm-none-eabi-9-2019-q4-major/bin/../lib/gcc/arm-none-eabi/9.2.1/../../../../arm-none-eabi/lib/thumb/v7e-m+fp/hard/libc_nano.a(lib_a-memchr.o)
                              /usr/local/Caskroom/gcc-arm-embedded/9-2019-q4-major/gcc-arm-none-eabi-9-2019-q4-major/bin/../lib/gcc/arm-none-eabi/9.2.1/../../../../arm-none-eabi/lib/thumb/v7e-m+fp/hard/libc_nano.a(lib_a-nano-svfprintf.o) (memchr)
/usr/local/Caskroom/gcc-arm-embedded/9-2019-q4-major/gcc-arm-none-eabi-9-2019-q4-major/bin/../lib/gcc/arm-none-eabi/9.2.1/../../../../arm-none-eabi/lib/thumb/v7e-m+fp/hard/libc_nano.a(lib_a-nano-freer.o)
                              /usr/local/Caskroom/gcc-arm-embedded/9-2019-q4-major/gcc-arm-none-eabi-9-2019-q4-major/bin/../lib/gcc/arm-none-eabi/9.2.1/../../../../arm-none-eabi/lib/thumb/v7e-m+fp/hard/libc_nano.a(lib_a-nano-svfprintf.o) (_free_r)
/usr/local/Caskroom/gcc-arm-embedded/9-2019-q4-major/gcc-arm-none-eabi-9-2019-q4-major/bin/../lib/gcc/arm-none-eabi/9.2.1/../../../../arm-none-eabi/lib/thumb/v7e-m+fp/hard/libc_nano.a(lib_a-nano-mallocr.o)
                              /usr/local/Caskroom/gcc-arm-embedded/9-2019-q4-major/gcc-arm-none-eabi-9-2019-q4-major/bin/../lib/gcc/arm-none-eabi/9.2.1/../../../../arm-none-eabi/lib/thumb/v7e-m+fp/hard/libc_nano.a(lib_a-nano-svfprintf.o) (_malloc_r)
/usr/local/Caskroom/gcc-arm-embedded/9-2019-q4-major/gcc-arm-none-eabi-9-2019-q4-major/bin/../lib/gcc/arm-none-eabi/9.2.1/../../../../arm-none-eabi/lib/thumb/v7e-m+fp/hard/libc_nano.a(lib_a-nano-reallocr.o)
                              /usr/local/Caskroom/gcc-arm-embedded/9-2019-q4-major/gcc-arm-none-eabi-9-2019-q4-major/bin/../lib/gcc/arm-none-eabi/9.2.1/../../../../arm-none-eabi/lib/thumb/v7e-m+fp/hard/libc_nano.a(lib_a-nano-svfprintf.o) (_realloc_r)
/usr/local/Caskroom/gcc-arm-embedded/9-2019-q4-major/gcc-arm-none-eabi-9-2019-q4-major/bin/../lib/gcc/arm-none-eabi/9.2.1/../../../../arm-none-eabi/lib/thumb/v7e-m+fp/hard/libc_nano.a(lib_a-sbrkr.o)
                              /usr/local/Caskroom/gcc-arm-embedded/9-2019-q4-major/gcc-arm-none-eabi-9-2019-q4-major/bin/../lib/gcc/arm-none-eabi/9.2.1/../../../../arm-none-eabi/lib/thumb/v7e-m+fp/hard/libc_nano.a(lib_a-nano-mallocr.o) (_sbrk_r)
/usr/local/Caskroom/gcc-arm-embedded/9-2019-q4-major/gcc-arm-none-eabi-9-2019-q4-major/bin/../lib/gcc/arm-none-eabi/9.2.1/../../../../arm-none-eabi/lib/thumb/v7e-m+fp/hard/libc_nano.a(lib_a-mlock.o)
                              /usr/local/Caskroom/gcc-arm-embedded/9-2019-q4-major/gcc-arm-none-eabi-9-2019-q4-major/bin/../lib/gcc/arm-none-eabi/9.2.1/../../../../arm-none-eabi/lib/thumb/v7e-m+fp/hard/libc_nano.a(lib_a-nano-freer.o) (__malloc_lock)
/usr/local/Caskroom/gcc-arm-embedded/9-2019-q4-major/gcc-arm-none-eabi-9-2019-q4-major/bin/../lib/gcc/arm-none-eabi/9.2.1/../../../../arm-none-eabi/lib/thumb/v7e-m+fp/hard/libc_nano.a(lib_a-nano-msizer.o)
                              /usr/local/Caskroom/gcc-arm-embedded/9-2019-q4-major/gcc-arm-none-eabi-9-2019-q4-major/bin/../lib/gcc/arm-none-eabi/9.2.1/../../../../arm-none-eabi/lib/thumb/v7e-m+fp/hard/libc_nano.a(lib_a-nano-reallocr.o) (_malloc_usable_size_r)
/usr/local/Caskroom/gcc-arm-embedded/9-2019-q4-major/gcc-arm-none-eabi-9-2019-q4-major/bin/../lib/gcc/arm-none-eabi/9.2.1/../../../../arm-none-eabi/lib/thumb/v7e-m+fp/hard/libc_nano.a(lib_a-reent.o)
                              /usr/local/Caskroom/gcc-arm-embedded/9-2019-q4-major/gcc-arm-none-eabi-9-2019-q4-major/bin/../lib/gcc/arm-none-eabi/9.2.1/../../../../arm-none-eabi/lib/thumb/v7e-m+fp/hard/libc_nano.a(lib_a-sbrkr.o) (errno)
/usr/local/Caskroom/gcc-arm-embedded/9-2019-q4-major/gcc-arm-none-eabi-9-2019-q4-major/bin/../lib/gcc/arm-none-eabi/9.2.1/../../../../arm-none-eabi/lib/thumb/v7e-m+fp/hard/libc_nano.a(lib_a-lock.o)
                              /usr/local/Caskroom/gcc-arm-embedded/9-2019-q4-major/gcc-arm-none-eabi-9-2019-q4-major/bin/../lib/gcc/arm-none-eabi/9.2.1/../../../../arm-none-eabi/lib/thumb/v7e-m+fp/hard/libc_nano.a(lib_a-mlock.o) (__retarget_lock_acquire_recursive)
/usr/local/Caskroom/gcc-arm-embedded/9-2019-q4-major/gcc-arm-none-eabi-9-2019-q4-major/bin/../lib/gcc/arm-none-eabi/9.2.1/../../../../arm-none-eabi/lib/thumb/v7e-m+fp/hard/libnosys.a(sbrk.o)
                              /usr/local/Caskroom/gcc-arm-embedded/9-2019-q4-major/gcc-arm-none-eabi-9-2019-q4-major/bin/../lib/gcc/arm-none-eabi/9.2.1/../../../../arm-none-eabi/lib/thumb/v7e-m+fp/hard/libc_nano.a(lib_a-sbrkr.o) (_sbrk)
/usr/local/Caskroom/gcc-arm-embedded/9-2019-q4-major/gcc-arm-none-eabi-9-2019-q4-major/bin/../lib/gcc/arm-none-eabi/9.2.1/../../../../arm-none-eabi/lib/thumb/v7e-m+fp/hard/libnosys.a(_exit.o)
                              /usr/local/Caskroom/gcc-arm-embedded/9-2019-q4-major/gcc-arm-none-eabi-9-2019-q4-major/bin/../lib/gcc/arm-none-eabi/9.2.1/../../../../arm-none-eabi/lib/thumb/v7e-m+fp/hard/libc_nano.a(lib_a-exit.o) (_exit)
/usr/local/Caskroom/gcc-arm-embedded/9-2019-q4-major/gcc-arm-none-eabi-9-2019-q4-major/bin/../lib/gcc/arm-none-eabi/9.2.1/thumb/v7e-m+fp/hard/libgcc.a(_aeabi_uldivmod.o)
                              build/stm32f7xx_hal_rcc.o (__aeabi_uldivmod)
/usr/local/Caskroom/gcc-arm-embedded/9-2019-q4-major/gcc-arm-none-eabi-9-2019-q4-major/bin/../lib/gcc/arm-none-eabi/9.2.1/thumb/v7e-m+fp/hard/libgcc.a(_udivmoddi4.o)
                              /usr/local/Caskroom/gcc-arm-embedded/9-2019-q4-major/gcc-arm-none-eabi-9-2019-q4-major/bin/../lib/gcc/arm-none-eabi/9.2.1/thumb/v7e-m+fp/hard/libgcc.a(_aeabi_uldivmod.o) (__udivmoddi4)
/usr/local/Caskroom/gcc-arm-embedded/9-2019-q4-major/gcc-arm-none-eabi-9-2019-q4-major/bin/../lib/gcc/arm-none-eabi/9.2.1/thumb/v7e-m+fp/hard/libgcc.a(_dvmd_tls.o)
                              /usr/local/Caskroom/gcc-arm-embedded/9-2019-q4-major/gcc-arm-none-eabi-9-2019-q4-major/bin/../lib/gcc/arm-none-eabi/9.2.1/thumb/v7e-m+fp/hard/libgcc.a(_aeabi_uldivmod.o) (__aeabi_ldiv0)

Allocating common symbols
Common symbol       size              file

__lock___atexit_recursive_mutex
                    0x1               /usr/local/Caskroom/gcc-arm-embedded/9-2019-q4-major/gcc-arm-none-eabi-9-2019-q4-major/bin/../lib/gcc/arm-none-eabi/9.2.1/../../../../arm-none-eabi/lib/thumb/v7e-m+fp/hard/libc_nano.a(lib_a-lock.o)
__lock___arc4random_mutex
                    0x1               /usr/local/Caskroom/gcc-arm-embedded/9-2019-q4-major/gcc-arm-none-eabi-9-2019-q4-major/bin/../lib/gcc/arm-none-eabi/9.2.1/../../../../arm-none-eabi/lib/thumb/v7e-m+fp/hard/libc_nano.a(lib_a-lock.o)
errno               0x4               /usr/local/Caskroom/gcc-arm-embedded/9-2019-q4-major/gcc-arm-none-eabi-9-2019-q4-major/bin/../lib/gcc/arm-none-eabi/9.2.1/../../../../arm-none-eabi/lib/thumb/v7e-m+fp/hard/libc_nano.a(lib_a-reent.o)
tid_startup         0x4               build/main.o
tid_led             0x4               build/main.o
huart               0x84              build/logging.o
ulHighFrequencyTimerTicks
                    0x4               build/freertos.o
tid_logger          0x4               build/logging.o
uwTick              0x4               build/stm32f7xx_hal.o
xQueueRegistry      0x40              build/queue.o
xBoundTCPSocketsList
                    0x14              build/FreeRTOS_Sockets.o
__lock___env_recursive_mutex
                    0x1               /usr/local/Caskroom/gcc-arm-embedded/9-2019-q4-major/gcc-arm-none-eabi-9-2019-q4-major/bin/../lib/gcc/arm-none-eabi/9.2.1/../../../../arm-none-eabi/lib/thumb/v7e-m+fp/hard/libc_nano.a(lib_a-lock.o)
__lock___sinit_recursive_mutex
                    0x1               /usr/local/Caskroom/gcc-arm-embedded/9-2019-q4-major/gcc-arm-none-eabi-9-2019-q4-major/bin/../lib/gcc/arm-none-eabi/9.2.1/../../../../arm-none-eabi/lib/thumb/v7e-m+fp/hard/libc_nano.a(lib_a-lock.o)
xPrintUDPAddress    0x8               build/logging.o
__lock___malloc_recursive_mutex
                    0x1               /usr/local/Caskroom/gcc-arm-embedded/9-2019-q4-major/gcc-arm-none-eabi-9-2019-q4-major/bin/../lib/gcc/arm-none-eabi/9.2.1/../../../../arm-none-eabi/lib/thumb/v7e-m+fp/hard/libc_nano.a(lib_a-lock.o)
htim13              0x4c              build/freertos.o
Rx_Buff             0x1e00            build/NetworkInterface.o
xBoundUDPSocketsList
                    0x14              build/FreeRTOS_Sockets.o
hrng                0x10              build/main.o
__lock___at_quick_exit_mutex
                    0x1               /usr/local/Caskroom/gcc-arm-embedded/9-2019-q4-major/gcc-arm-none-eabi-9-2019-q4-major/bin/../lib/gcc/arm-none-eabi/9.2.1/../../../../arm-none-eabi/lib/thumb/v7e-m+fp/hard/libc_nano.a(lib_a-lock.o)
__lock___dd_hash_mutex
                    0x1               /usr/local/Caskroom/gcc-arm-embedded/9-2019-q4-major/gcc-arm-none-eabi-9-2019-q4-major/bin/../lib/gcc/arm-none-eabi/9.2.1/../../../../arm-none-eabi/lib/thumb/v7e-m+fp/hard/libc_nano.a(lib_a-lock.o)
__lock___tz_mutex   0x1               /usr/local/Caskroom/gcc-arm-embedded/9-2019-q4-major/gcc-arm-none-eabi-9-2019-q4-major/bin/../lib/gcc/arm-none-eabi/9.2.1/../../../../arm-none-eabi/lib/thumb/v7e-m+fp/hard/libc_nano.a(lib_a-lock.o)
Tx_Buff             0x1e00            build/NetworkInterface.o
__lock___sfp_recursive_mutex
                    0x1               /usr/local/Caskroom/gcc-arm-embedded/9-2019-q4-major/gcc-arm-none-eabi-9-2019-q4-major/bin/../lib/gcc/arm-none-eabi/9.2.1/../../../../arm-none-eabi/lib/thumb/v7e-m+fp/hard/libc_nano.a(lib_a-lock.o)

Discarded input sections

 .text          0x0000000000000000        0x0 /usr/local/Caskroom/gcc-arm-embedded/9-2019-q4-major/gcc-arm-none-eabi-9-2019-q4-major/bin/../lib/gcc/arm-none-eabi/9.2.1/thumb/v7e-m+fp/hard/crti.o
 .data          0x0000000000000000        0x0 /usr/local/Caskroom/gcc-arm-embedded/9-2019-q4-major/gcc-arm-none-eabi-9-2019-q4-major/bin/../lib/gcc/arm-none-eabi/9.2.1/thumb/v7e-m+fp/hard/crti.o
 .bss           0x0000000000000000        0x0 /usr/local/Caskroom/gcc-arm-embedded/9-2019-q4-major/gcc-arm-none-eabi-9-2019-q4-major/bin/../lib/gcc/arm-none-eabi/9.2.1/thumb/v7e-m+fp/hard/crti.o
 .data          0x0000000000000000        0x4 /usr/local/Caskroom/gcc-arm-embedded/9-2019-q4-major/gcc-arm-none-eabi-9-2019-q4-major/bin/../lib/gcc/arm-none-eabi/9.2.1/thumb/v7e-m+fp/hard/crtbegin.o
 .text          0x0000000000000000       0x74 /usr/local/Caskroom/gcc-arm-embedded/9-2019-q4-major/gcc-arm-none-eabi-9-2019-q4-major/bin/../lib/gcc/arm-none-eabi/9.2.1/../../../../arm-none-eabi/lib/thumb/v7e-m+fp/hard/crt0.o
 .data          0x0000000000000000        0x0 /usr/local/Caskroom/gcc-arm-embedded/9-2019-q4-major/gcc-arm-none-eabi-9-2019-q4-major/bin/../lib/gcc/arm-none-eabi/9.2.1/../../../../arm-none-eabi/lib/thumb/v7e-m+fp/hard/crt0.o
 .bss           0x0000000000000000        0x0 /usr/local/Caskroom/gcc-arm-embedded/9-2019-q4-major/gcc-arm-none-eabi-9-2019-q4-major/bin/../lib/gcc/arm-none-eabi/9.2.1/../../../../arm-none-eabi/lib/thumb/v7e-m+fp/hard/crt0.o
 .ARM.extab     0x0000000000000000        0x0 /usr/local/Caskroom/gcc-arm-embedded/9-2019-q4-major/gcc-arm-none-eabi-9-2019-q4-major/bin/../lib/gcc/arm-none-eabi/9.2.1/../../../../arm-none-eabi/lib/thumb/v7e-m+fp/hard/crt0.o
 .ARM.exidx     0x0000000000000000        0x8 /usr/local/Caskroom/gcc-arm-embedded/9-2019-q4-major/gcc-arm-none-eabi-9-2019-q4-major/bin/../lib/gcc/arm-none-eabi/9.2.1/../../../../arm-none-eabi/lib/thumb/v7e-m+fp/hard/crt0.o
 .ARM.attributes
                0x0000000000000000       0x1c /usr/local/Caskroom/gcc-arm-embedded/9-2019-q4-major/gcc-arm-none-eabi-9-2019-q4-major/bin/../lib/gcc/arm-none-eabi/9.2.1/../../../../arm-none-eabi/lib/thumb/v7e-m+fp/hard/crt0.o
 .text          0x0000000000000000        0x0 build/main.o
 .data          0x0000000000000000        0x0 build/main.o
 .bss           0x0000000000000000        0x0 build/main.o
 .rodata.LedTask_attributes
                0x0000000000000000       0x24 build/main.o
 .rodata.xLogToSWO
                0x0000000000000000        0x4 build/main.o
 .rodata.xLogToUART
                0x0000000000000000        0x4 build/main.o
 .rodata.xLogToUDP
                0x0000000000000000        0x4 build/main.o
 .text          0x0000000000000000        0x0 build/freertos.o
 .data          0x0000000000000000        0x0 build/freertos.o
 .bss           0x0000000000000000        0x0 build/freertos.o
 .text.vApplicationTickHook
                0x0000000000000000       0x1c build/freertos.o
 .text.vApplicationMallocFailedHook
                0x0000000000000000        0x2 build/freertos.o
 .text.vApplicationIdleHook
                0x0000000000000000       0x12 build/freertos.o
 .bss.ulCount.11267
                0x0000000000000000        0x4 build/freertos.o
 .text          0x0000000000000000        0x0 build/stm32f7xx_it.o
 .data          0x0000000000000000        0x0 build/stm32f7xx_it.o
 .bss           0x0000000000000000        0x0 build/stm32f7xx_it.o
 .text          0x0000000000000000        0x0 build/stm32f7xx_hal_msp.o
 .data          0x0000000000000000        0x0 build/stm32f7xx_hal_msp.o
 .bss           0x0000000000000000        0x0 build/stm32f7xx_hal_msp.o
 .text.HAL_MspDeInit
                0x0000000000000000        0x2 build/stm32f7xx_hal_msp.o
 .text.HAL_TIM_Base_MspDeInit
                0x0000000000000000       0x28 build/stm32f7xx_hal_msp.o
 .text.HAL_UART_MspDeInit
                0x0000000000000000       0x40 build/stm32f7xx_hal_msp.o
 .text.HAL_RNG_MspDeInit
                0x0000000000000000       0x20 build/stm32f7xx_hal_msp.o
 .text.HAL_ETH_MspDeInit
                0x0000000000000000       0xa0 build/stm32f7xx_hal_msp.o
 .text          0x0000000000000000        0x0 build/stm32f7xx_nucleo_144.o
 .data          0x0000000000000000        0x0 build/stm32f7xx_nucleo_144.o
 .bss           0x0000000000000000        0x0 build/stm32f7xx_nucleo_144.o
 .text.BSP_GetVersion
                0x0000000000000000        0x6 build/stm32f7xx_nucleo_144.o
 .text.BSP_LED_DeInit
                0x0000000000000000       0x2c build/stm32f7xx_nucleo_144.o
 .text.BSP_PB_Init
                0x0000000000000000       0x80 build/stm32f7xx_nucleo_144.o
 .text.BSP_PB_DeInit
                0x0000000000000000       0x20 build/stm32f7xx_nucleo_144.o
 .text.BSP_PB_GetState
                0x0000000000000000       0x18 build/stm32f7xx_nucleo_144.o
 .data.BUTTON_PORT
                0x0000000000000000        0x4 build/stm32f7xx_nucleo_144.o
 .rodata.BUTTON_IRQn
                0x0000000000000000        0x1 build/stm32f7xx_nucleo_144.o
 .rodata.BUTTON_PIN
                0x0000000000000000        0x2 build/stm32f7xx_nucleo_144.o
 .text          0x0000000000000000        0x0 build/stm32f7xx_hal.o
 .data          0x0000000000000000        0x0 build/stm32f7xx_hal.o
 .bss           0x0000000000000000        0x0 build/stm32f7xx_hal.o
 .text.HAL_MspInit
                0x0000000000000000        0x2 build/stm32f7xx_hal.o
 .text.HAL_MspDeInit
                0x0000000000000000        0x2 build/stm32f7xx_hal.o
 .text.HAL_DeInit
                0x0000000000000000       0x2c build/stm32f7xx_hal.o
 .text.HAL_GetTickPrio
                0x0000000000000000        0xc build/stm32f7xx_hal.o
 .text.HAL_SetTickFreq
                0x0000000000000000       0x2c build/stm32f7xx_hal.o
 .text.HAL_GetTickFreq
                0x0000000000000000        0xc build/stm32f7xx_hal.o
 .text.HAL_Delay
                0x0000000000000000       0x28 build/stm32f7xx_hal.o
 .text.HAL_SuspendTick
                0x0000000000000000       0x10 build/stm32f7xx_hal.o
 .text.HAL_ResumeTick
                0x0000000000000000       0x10 build/stm32f7xx_hal.o
 .text.HAL_GetHalVersion
                0x0000000000000000        0x8 build/stm32f7xx_hal.o
 .text.HAL_GetREVID
                0x0000000000000000        0xc build/stm32f7xx_hal.o
 .text.HAL_GetDEVID
                0x0000000000000000       0x10 build/stm32f7xx_hal.o
 .text.HAL_GetUIDw0
                0x0000000000000000        0xc build/stm32f7xx_hal.o
 .text.HAL_GetUIDw1
                0x0000000000000000        0xc build/stm32f7xx_hal.o
 .text.HAL_GetUIDw2
                0x0000000000000000        0xc build/stm32f7xx_hal.o
 .text.HAL_DBGMCU_EnableDBGSleepMode
                0x0000000000000000       0x10 build/stm32f7xx_hal.o
 .text.HAL_DBGMCU_DisableDBGSleepMode
                0x0000000000000000       0x10 build/stm32f7xx_hal.o
 .text.HAL_DBGMCU_EnableDBGStopMode
                0x0000000000000000       0x10 build/stm32f7xx_hal.o
 .text.HAL_DBGMCU_DisableDBGStopMode
                0x0000000000000000       0x10 build/stm32f7xx_hal.o
 .text.HAL_DBGMCU_EnableDBGStandbyMode
                0x0000000000000000       0x10 build/stm32f7xx_hal.o
 .text.HAL_DBGMCU_DisableDBGStandbyMode
                0x0000000000000000       0x10 build/stm32f7xx_hal.o
 .text.HAL_EnableCompensationCell
                0x0000000000000000       0x10 build/stm32f7xx_hal.o
 .text.HAL_DisableCompensationCell
                0x0000000000000000       0x10 build/stm32f7xx_hal.o
 .text.HAL_EnableFMCMemorySwapping
                0x0000000000000000       0x10 build/stm32f7xx_hal.o
 .text.HAL_DisableFMCMemorySwapping
                0x0000000000000000       0x10 build/stm32f7xx_hal.o
 .text          0x0000000000000000        0x0 build/stm32f7xx_hal_cortex.o
 .data          0x0000000000000000        0x0 build/stm32f7xx_hal_cortex.o
 .bss           0x0000000000000000        0x0 build/stm32f7xx_hal_cortex.o
 .text.HAL_NVIC_DisableIRQ
                0x0000000000000000       0x24 build/stm32f7xx_hal_cortex.o
 .text.HAL_NVIC_SystemReset
                0x0000000000000000       0x24 build/stm32f7xx_hal_cortex.o
 .text.HAL_MPU_Disable
                0x0000000000000000       0x20 build/stm32f7xx_hal_cortex.o
 .text.HAL_MPU_Enable
                0x0000000000000000       0x24 build/stm32f7xx_hal_cortex.o
 .text.HAL_MPU_ConfigRegion
                0x0000000000000000       0x54 build/stm32f7xx_hal_cortex.o
 .text.HAL_NVIC_GetPriorityGrouping
                0x0000000000000000       0x10 build/stm32f7xx_hal_cortex.o
 .text.HAL_NVIC_GetPriority
                0x0000000000000000       0x5c build/stm32f7xx_hal_cortex.o
 .text.HAL_NVIC_SetPendingIRQ
                0x0000000000000000       0x1c build/stm32f7xx_hal_cortex.o
 .text.HAL_NVIC_GetPendingIRQ
                0x0000000000000000       0x24 build/stm32f7xx_hal_cortex.o
 .text.HAL_NVIC_ClearPendingIRQ
                0x0000000000000000       0x1c build/stm32f7xx_hal_cortex.o
 .text.HAL_NVIC_GetActive
                0x0000000000000000       0x24 build/stm32f7xx_hal_cortex.o
 .text.HAL_SYSTICK_CLKSourceConfig
                0x0000000000000000       0x20 build/stm32f7xx_hal_cortex.o
 .text.HAL_SYSTICK_Callback
                0x0000000000000000        0x2 build/stm32f7xx_hal_cortex.o
 .text.HAL_SYSTICK_IRQHandler
                0x0000000000000000        0x8 build/stm32f7xx_hal_cortex.o
 .text          0x0000000000000000        0x0 build/stm32f7xx_hal_rcc.o
 .data          0x0000000000000000        0x0 build/stm32f7xx_hal_rcc.o
 .bss           0x0000000000000000        0x0 build/stm32f7xx_hal_rcc.o
 .text.HAL_RCC_DeInit
                0x0000000000000000      0x158 build/stm32f7xx_hal_rcc.o
 .text.HAL_RCC_MCOConfig
                0x0000000000000000       0x98 build/stm32f7xx_hal_rcc.o
 .text.HAL_RCC_EnableCSS
                0x0000000000000000       0x10 build/stm32f7xx_hal_rcc.o
 .text.HAL_RCC_DisableCSS
                0x0000000000000000       0x10 build/stm32f7xx_hal_rcc.o
 .text.HAL_RCC_GetOscConfig
                0x0000000000000000       0xcc build/stm32f7xx_hal_rcc.o
 .text.HAL_RCC_GetClockConfig
                0x0000000000000000       0x3c build/stm32f7xx_hal_rcc.o
 .text.HAL_RCC_CSSCallback
                0x0000000000000000        0x2 build/stm32f7xx_hal_rcc.o
 .text.HAL_RCC_NMI_IRQHandler
                0x0000000000000000       0x24 build/stm32f7xx_hal_rcc.o
 .text          0x0000000000000000        0x0 build/stm32f7xx_hal_rcc_ex.o
 .data          0x0000000000000000        0x0 build/stm32f7xx_hal_rcc_ex.o
 .bss           0x0000000000000000        0x0 build/stm32f7xx_hal_rcc_ex.o
 .text.HAL_RCCEx_GetPeriphCLKConfig
                0x0000000000000000      0x164 build/stm32f7xx_hal_rcc_ex.o
 .text.HAL_RCCEx_GetPeriphCLKFreq
                0x0000000000000000      0x1b0 build/stm32f7xx_hal_rcc_ex.o
 .text.HAL_RCCEx_EnablePLLI2S
                0x0000000000000000       0x78 build/stm32f7xx_hal_rcc_ex.o
 .text.HAL_RCCEx_DisablePLLI2S
                0x0000000000000000       0x34 build/stm32f7xx_hal_rcc_ex.o
 .text.HAL_RCCEx_EnablePLLSAI
                0x0000000000000000       0x78 build/stm32f7xx_hal_rcc_ex.o
 .text.HAL_RCCEx_DisablePLLSAI
                0x0000000000000000       0x34 build/stm32f7xx_hal_rcc_ex.o
 .text          0x0000000000000000        0x0 build/stm32f7xx_hal_dma.o
 .data          0x0000000000000000        0x0 build/stm32f7xx_hal_dma.o
 .bss           0x0000000000000000        0x0 build/stm32f7xx_hal_dma.o
 .text.DMA_SetConfig
                0x0000000000000000       0x2c build/stm32f7xx_hal_dma.o
 .text.DMA_CalcBaseAndBitshift
                0x0000000000000000       0x40 build/stm32f7xx_hal_dma.o
 .text.DMA_CheckFifoParam
                0x0000000000000000       0x8e build/stm32f7xx_hal_dma.o
 .text.HAL_DMA_Init
                0x0000000000000000       0xcc build/stm32f7xx_hal_dma.o
 .text.HAL_DMA_DeInit
                0x0000000000000000       0x64 build/stm32f7xx_hal_dma.o
 .text.HAL_DMA_Start
                0x0000000000000000       0x48 build/stm32f7xx_hal_dma.o
 .text.HAL_DMA_Start_IT
                0x0000000000000000       0x74 build/stm32f7xx_hal_dma.o
 .text.HAL_DMA_Abort
                0x0000000000000000       0x94 build/stm32f7xx_hal_dma.o
 .text.HAL_DMA_Abort_IT
                0x0000000000000000       0x26 build/stm32f7xx_hal_dma.o
 .text.HAL_DMA_PollForTransfer
                0x0000000000000000      0x128 build/stm32f7xx_hal_dma.o
 .text.HAL_DMA_IRQHandler
                0x0000000000000000      0x1dc build/stm32f7xx_hal_dma.o
 .text.HAL_DMA_RegisterCallback
                0x0000000000000000       0x58 build/stm32f7xx_hal_dma.o
 .text.HAL_DMA_UnRegisterCallback
                0x0000000000000000       0x6e build/stm32f7xx_hal_dma.o
 .text.HAL_DMA_GetState
                0x0000000000000000        0x6 build/stm32f7xx_hal_dma.o
 .text.HAL_DMA_GetError
                0x0000000000000000        0x4 build/stm32f7xx_hal_dma.o
 .rodata.flagBitshiftOffset.9113
                0x0000000000000000        0x8 build/stm32f7xx_hal_dma.o
 .debug_info    0x0000000000000000      0xc8b build/stm32f7xx_hal_dma.o
 .debug_abbrev  0x0000000000000000      0x312 build/stm32f7xx_hal_dma.o
 .debug_loc     0x0000000000000000      0xd6d build/stm32f7xx_hal_dma.o
 .debug_aranges
                0x0000000000000000       0x90 build/stm32f7xx_hal_dma.o
 .debug_ranges  0x0000000000000000       0x80 build/stm32f7xx_hal_dma.o
 .debug_line    0x0000000000000000      0xe7a build/stm32f7xx_hal_dma.o
 .debug_str     0x0000000000000000      0x855 build/stm32f7xx_hal_dma.o
 .comment       0x0000000000000000       0x7a build/stm32f7xx_hal_dma.o
 .debug_frame   0x0000000000000000      0x1b8 build/stm32f7xx_hal_dma.o
 .ARM.attributes
                0x0000000000000000       0x34 build/stm32f7xx_hal_dma.o
 .text          0x0000000000000000        0x0 build/stm32f7xx_hal_dma_ex.o
 .data          0x0000000000000000        0x0 build/stm32f7xx_hal_dma_ex.o
 .bss           0x0000000000000000        0x0 build/stm32f7xx_hal_dma_ex.o
 .text.DMA_MultiBufferSetConfig
                0x0000000000000000       0x24 build/stm32f7xx_hal_dma_ex.o
 .text.HAL_DMAEx_MultiBufferStart
                0x0000000000000000       0x5e build/stm32f7xx_hal_dma_ex.o
 .text.HAL_DMAEx_MultiBufferStart_IT
                0x0000000000000000      0xee8 build/stm32f7xx_hal_dma_ex.o
 .text.HAL_DMAEx_ChangeMemory
                0x0000000000000000       0x10 build/stm32f7xx_hal_dma_ex.o
 .debug_info    0x0000000000000000      0x705 build/stm32f7xx_hal_dma_ex.o
 .debug_abbrev  0x0000000000000000      0x215 build/stm32f7xx_hal_dma_ex.o
 .debug_loc     0x0000000000000000      0x46f build/stm32f7xx_hal_dma_ex.o
 .debug_aranges
                0x0000000000000000       0x38 build/stm32f7xx_hal_dma_ex.o
 .debug_ranges  0x0000000000000000       0x28 build/stm32f7xx_hal_dma_ex.o
 .debug_line    0x0000000000000000      0xa3d build/stm32f7xx_hal_dma_ex.o
 .debug_str     0x0000000000000000      0x64a build/stm32f7xx_hal_dma_ex.o
 .comment       0x0000000000000000       0x7a build/stm32f7xx_hal_dma_ex.o
 .debug_frame   0x0000000000000000       0x80 build/stm32f7xx_hal_dma_ex.o
 .ARM.attributes
                0x0000000000000000       0x34 build/stm32f7xx_hal_dma_ex.o
 .text          0x0000000000000000        0x0 build/stm32f7xx_hal_rng.o
 .data          0x0000000000000000        0x0 build/stm32f7xx_hal_rng.o
 .bss           0x0000000000000000        0x0 build/stm32f7xx_hal_rng.o
 .text.HAL_RNG_MspInit
                0x0000000000000000        0x2 build/stm32f7xx_hal_rng.o
 .text.HAL_RNG_MspDeInit
                0x0000000000000000        0x2 build/stm32f7xx_hal_rng.o
 .text.HAL_RNG_DeInit
                0x0000000000000000       0x2c build/stm32f7xx_hal_rng.o
 .text.HAL_RNG_GenerateRandomNumber_IT
                0x0000000000000000       0x34 build/stm32f7xx_hal_rng.o
 .text.HAL_RNG_GetRandomNumber_IT
                0x0000000000000000       0x20 build/stm32f7xx_hal_rng.o
 .text.HAL_RNG_ReadLastRandomNumber
                0x0000000000000000        0x4 build/stm32f7xx_hal_rng.o
 .text.HAL_RNG_ReadyDataCallback
                0x0000000000000000        0x2 build/stm32f7xx_hal_rng.o
 .text.HAL_RNG_ErrorCallback
                0x0000000000000000        0x2 build/stm32f7xx_hal_rng.o
 .text.HAL_RNG_IRQHandler
                0x0000000000000000       0x64 build/stm32f7xx_hal_rng.o
 .text.HAL_RNG_GetState
                0x0000000000000000        0x4 build/stm32f7xx_hal_rng.o
 .text.HAL_RNG_GetError
                0x0000000000000000        0x4 build/stm32f7xx_hal_rng.o
 .text          0x0000000000000000        0x0 build/stm32f7xx_hal_tim.o
 .data          0x0000000000000000        0x0 build/stm32f7xx_hal_tim.o
 .bss           0x0000000000000000        0x0 build/stm32f7xx_hal_tim.o
 .text.TIM_OC1_SetConfig
                0x0000000000000000       0x68 build/stm32f7xx_hal_tim.o
 .text.TIM_OC3_SetConfig
                0x0000000000000000       0x70 build/stm32f7xx_hal_tim.o
 .text.TIM_OC4_SetConfig
                0x0000000000000000       0x54 build/stm32f7xx_hal_tim.o
 .text.TIM_OC5_SetConfig
                0x0000000000000000       0x54 build/stm32f7xx_hal_tim.o
 .text.TIM_OC6_SetConfig
                0x0000000000000000       0x54 build/stm32f7xx_hal_tim.o
 .text.TIM_TI1_ConfigInputStage
                0x0000000000000000       0x24 build/stm32f7xx_hal_tim.o
 .text.TIM_TI2_SetConfig
                0x0000000000000000       0x34 build/stm32f7xx_hal_tim.o
 .text.TIM_TI2_ConfigInputStage
                0x0000000000000000       0x26 build/stm32f7xx_hal_tim.o
 .text.TIM_TI3_SetConfig
                0x0000000000000000       0x32 build/stm32f7xx_hal_tim.o
 .text.TIM_TI4_SetConfig
                0x0000000000000000       0x34 build/stm32f7xx_hal_tim.o
 .text.TIM_ITRx_SetConfig
                0x0000000000000000       0x10 build/stm32f7xx_hal_tim.o
 .text.HAL_TIM_Base_MspInit
                0x0000000000000000        0x2 build/stm32f7xx_hal_tim.o
 .text.HAL_TIM_Base_MspDeInit
                0x0000000000000000        0x2 build/stm32f7xx_hal_tim.o
 .text.HAL_TIM_Base_DeInit
                0x0000000000000000       0x66 build/stm32f7xx_hal_tim.o
 .text.HAL_TIM_Base_Start
                0x0000000000000000       0x88 build/stm32f7xx_hal_tim.o
 .text.HAL_TIM_Base_Stop
                0x0000000000000000       0x28 build/stm32f7xx_hal_tim.o
 .text.HAL_TIM_Base_Stop_IT
                0x0000000000000000       0x32 build/stm32f7xx_hal_tim.o
 .text.HAL_TIM_Base_Start_DMA
                0x0000000000000000       0xe4 build/stm32f7xx_hal_tim.o
 .text.HAL_TIM_Base_Stop_DMA
                0x0000000000000000       0x3c build/stm32f7xx_hal_tim.o
 .text.HAL_TIM_OC_MspInit
                0x0000000000000000        0x2 build/stm32f7xx_hal_tim.o
 .text.HAL_TIM_OC_MspDeInit
                0x0000000000000000        0x2 build/stm32f7xx_hal_tim.o
 .text.HAL_TIM_OC_DeInit
                0x0000000000000000       0x66 build/stm32f7xx_hal_tim.o
 .text.HAL_TIM_PWM_MspInit
                0x0000000000000000        0x2 build/stm32f7xx_hal_tim.o
 .text.HAL_TIM_PWM_MspDeInit
                0x0000000000000000        0x2 build/stm32f7xx_hal_tim.o
 .text.HAL_TIM_PWM_DeInit
                0x0000000000000000       0x66 build/stm32f7xx_hal_tim.o
 .text.HAL_TIM_IC_MspInit
                0x0000000000000000        0x2 build/stm32f7xx_hal_tim.o
 .text.HAL_TIM_IC_MspDeInit
                0x0000000000000000        0x2 build/stm32f7xx_hal_tim.o
 .text.HAL_TIM_IC_DeInit
                0x0000000000000000       0x66 build/stm32f7xx_hal_tim.o
 .text.HAL_TIM_OnePulse_MspInit
                0x0000000000000000        0x2 build/stm32f7xx_hal_tim.o
 .text.HAL_TIM_OnePulse_MspDeInit
                0x0000000000000000        0x2 build/stm32f7xx_hal_tim.o
 .text.HAL_TIM_OnePulse_DeInit
                0x0000000000000000       0x4e build/stm32f7xx_hal_tim.o
 .text.HAL_TIM_Encoder_MspInit
                0x0000000000000000        0x2 build/stm32f7xx_hal_tim.o
 .text.HAL_TIM_Encoder_MspDeInit
                0x0000000000000000        0x2 build/stm32f7xx_hal_tim.o
 .text.HAL_TIM_Encoder_DeInit
                0x0000000000000000       0x4e build/stm32f7xx_hal_tim.o
 .text.HAL_TIM_DMABurst_MultiWriteStart
                0x0000000000000000      0x1a4 build/stm32f7xx_hal_tim.o
 .text.HAL_TIM_DMABurst_WriteStart
                0x0000000000000000       0x16 build/stm32f7xx_hal_tim.o
 .text.HAL_TIM_DMABurst_WriteStop
                0x0000000000000000       0x7c build/stm32f7xx_hal_tim.o
 .text.HAL_TIM_DMABurst_MultiReadStart
                0x0000000000000000      0x1a4 build/stm32f7xx_hal_tim.o
 .text.HAL_TIM_DMABurst_ReadStart
                0x0000000000000000       0x16 build/stm32f7xx_hal_tim.o
 .text.HAL_TIM_DMABurst_ReadStop
                0x0000000000000000       0x7c build/stm32f7xx_hal_tim.o
 .text.HAL_TIM_GenerateEvent
                0x0000000000000000       0x26 build/stm32f7xx_hal_tim.o
 .text.HAL_TIM_ConfigTI1Input
                0x0000000000000000       0x10 build/stm32f7xx_hal_tim.o
 .text.HAL_TIM_ReadCapturedValue
                0x0000000000000000       0x32 build/stm32f7xx_hal_tim.o
 .text.TIM_DMAPeriodElapsedCplt
                0x0000000000000000       0x16 build/stm32f7xx_hal_tim.o
 .text.HAL_TIM_PeriodElapsedHalfCpltCallback
                0x0000000000000000        0x2 build/stm32f7xx_hal_tim.o
 .text.TIM_DMAPeriodElapsedHalfCplt
                0x0000000000000000        0xa build/stm32f7xx_hal_tim.o
 .text.TIM_DMACaptureCplt
                0x0000000000000000       0x80 build/stm32f7xx_hal_tim.o
 .text.HAL_TIM_IC_CaptureHalfCpltCallback
                0x0000000000000000        0x2 build/stm32f7xx_hal_tim.o
 .text.TIM_DMACaptureHalfCplt
                0x0000000000000000       0x3e build/stm32f7xx_hal_tim.o
 .text.TIM_DMADelayPulseCplt
                0x0000000000000000       0x70 build/stm32f7xx_hal_tim.o
 .text.HAL_TIM_PWM_PulseFinishedHalfCpltCallback
                0x0000000000000000        0x2 build/stm32f7xx_hal_tim.o
 .text.TIM_DMADelayPulseHalfCplt
                0x0000000000000000       0x3e build/stm32f7xx_hal_tim.o
 .text.TIM_DMATriggerCplt
                0x0000000000000000       0x16 build/stm32f7xx_hal_tim.o
 .text.HAL_TIM_TriggerHalfCpltCallback
                0x0000000000000000        0x2 build/stm32f7xx_hal_tim.o
 .text.TIM_DMATriggerHalfCplt
                0x0000000000000000        0xa build/stm32f7xx_hal_tim.o
 .text.HAL_TIM_ErrorCallback
                0x0000000000000000        0x2 build/stm32f7xx_hal_tim.o
 .text.TIM_DMAError
                0x0000000000000000       0x5c build/stm32f7xx_hal_tim.o
 .text.HAL_TIM_Base_GetState
                0x0000000000000000        0x6 build/stm32f7xx_hal_tim.o
 .text.HAL_TIM_OC_GetState
                0x0000000000000000        0x6 build/stm32f7xx_hal_tim.o
 .text.HAL_TIM_PWM_GetState
                0x0000000000000000        0x6 build/stm32f7xx_hal_tim.o
 .text.HAL_TIM_IC_GetState
                0x0000000000000000        0x6 build/stm32f7xx_hal_tim.o
 .text.HAL_TIM_OnePulse_GetState
                0x0000000000000000        0x6 build/stm32f7xx_hal_tim.o
 .text.HAL_TIM_Encoder_GetState
                0x0000000000000000        0x6 build/stm32f7xx_hal_tim.o
 .text.HAL_TIM_GetActiveChannel
                0x0000000000000000        0x4 build/stm32f7xx_hal_tim.o
 .text.HAL_TIM_GetChannelState
                0x0000000000000000       0x42 build/stm32f7xx_hal_tim.o
 .text.HAL_TIM_DMABurstState
                0x0000000000000000        0x6 build/stm32f7xx_hal_tim.o
 .text.HAL_TIM_OC_Init
                0x0000000000000000       0x60 build/stm32f7xx_hal_tim.o
 .text.HAL_TIM_PWM_Init
                0x0000000000000000       0x60 build/stm32f7xx_hal_tim.o
 .text.HAL_TIM_IC_Init
                0x0000000000000000       0x60 build/stm32f7xx_hal_tim.o
 .text.HAL_TIM_OnePulse_Init
                0x0000000000000000       0x5c build/stm32f7xx_hal_tim.o
 .text.HAL_TIM_Encoder_Init
                0x0000000000000000       0xb0 build/stm32f7xx_hal_tim.o
 .text.TIM_OC2_SetConfig
                0x0000000000000000       0x70 build/stm32f7xx_hal_tim.o
 .text.HAL_TIM_OC_ConfigChannel
                0x0000000000000000       0x6a build/stm32f7xx_hal_tim.o
 .text.HAL_TIM_PWM_ConfigChannel
                0x0000000000000000      0x128 build/stm32f7xx_hal_tim.o
 .text.TIM_TI1_SetConfig
                0x0000000000000000       0x90 build/stm32f7xx_hal_tim.o
 .text.HAL_TIM_IC_ConfigChannel
                0x0000000000000000       0xb4 build/stm32f7xx_hal_tim.o
 .text.HAL_TIM_OnePulse_ConfigChannel
                0x0000000000000000       0xf8 build/stm32f7xx_hal_tim.o
 .text.TIM_ETR_SetConfig
                0x0000000000000000       0x18 build/stm32f7xx_hal_tim.o
 .text.HAL_TIM_ConfigOCrefClear
                0x0000000000000000      0x126 build/stm32f7xx_hal_tim.o
 .text.HAL_TIM_ConfigClockSource
                0x0000000000000000       0xdc build/stm32f7xx_hal_tim.o
 .text.TIM_SlaveTimer_SetConfig
                0x0000000000000000       0x94 build/stm32f7xx_hal_tim.o
 .text.HAL_TIM_SlaveConfigSynchro
                0x0000000000000000       0x52 build/stm32f7xx_hal_tim.o
 .text.HAL_TIM_SlaveConfigSynchro_IT
                0x0000000000000000       0x52 build/stm32f7xx_hal_tim.o
 .text.TIM_CCxChannelCmd
                0x0000000000000000       0x24 build/stm32f7xx_hal_tim.o
 .text.HAL_TIM_OC_Start
                0x0000000000000000      0x150 build/stm32f7xx_hal_tim.o
 .text.HAL_TIM_OC_Stop
                0x0000000000000000       0xa4 build/stm32f7xx_hal_tim.o
 .text.HAL_TIM_OC_Start_IT
                0x0000000000000000      0x190 build/stm32f7xx_hal_tim.o
 .text.HAL_TIM_OC_Stop_IT
                0x0000000000000000       0xe8 build/stm32f7xx_hal_tim.o
 .text.HAL_TIM_OC_Start_DMA
                0x0000000000000000      0x2e4 build/stm32f7xx_hal_tim.o
 .text.HAL_TIM_OC_Stop_DMA
                0x0000000000000000      0x100 build/stm32f7xx_hal_tim.o
 .text.HAL_TIM_PWM_Start
                0x0000000000000000      0x150 build/stm32f7xx_hal_tim.o
 .text.HAL_TIM_PWM_Stop
                0x0000000000000000       0xa4 build/stm32f7xx_hal_tim.o
 .text.HAL_TIM_PWM_Start_IT
                0x0000000000000000      0x190 build/stm32f7xx_hal_tim.o
 .text.HAL_TIM_PWM_Stop_IT
                0x0000000000000000       0xe8 build/stm32f7xx_hal_tim.o
 .text.HAL_TIM_PWM_Start_DMA
                0x0000000000000000      0x2e4 build/stm32f7xx_hal_tim.o
 .text.HAL_TIM_PWM_Stop_DMA
                0x0000000000000000      0x100 build/stm32f7xx_hal_tim.o
 .text.HAL_TIM_IC_Start
                0x0000000000000000      0x168 build/stm32f7xx_hal_tim.o
 .text.HAL_TIM_IC_Stop
                0x0000000000000000       0x98 build/stm32f7xx_hal_tim.o
 .text.HAL_TIM_IC_Start_IT
                0x0000000000000000      0x1ac build/stm32f7xx_hal_tim.o
 .text.HAL_TIM_IC_Stop_IT
                0x0000000000000000       0xde build/stm32f7xx_hal_tim.o
 .text.HAL_TIM_IC_Start_DMA
                0x0000000000000000      0x278 build/stm32f7xx_hal_tim.o
 .text.HAL_TIM_IC_Stop_DMA
                0x0000000000000000       0xf6 build/stm32f7xx_hal_tim.o
 .text.HAL_TIM_OnePulse_Start
                0x0000000000000000       0x84 build/stm32f7xx_hal_tim.o
 .text.HAL_TIM_OnePulse_Stop
                0x0000000000000000       0x80 build/stm32f7xx_hal_tim.o
 .text.HAL_TIM_OnePulse_Start_IT
                0x0000000000000000       0x98 build/stm32f7xx_hal_tim.o
 .text.HAL_TIM_OnePulse_Stop_IT
                0x0000000000000000       0x94 build/stm32f7xx_hal_tim.o
 .text.HAL_TIM_Encoder_Start
                0x0000000000000000       0xc2 build/stm32f7xx_hal_tim.o
 .text.HAL_TIM_Encoder_Stop
                0x0000000000000000       0xe6 build/stm32f7xx_hal_tim.o
 .text.HAL_TIM_Encoder_Start_IT
                0x0000000000000000       0xee build/stm32f7xx_hal_tim.o
 .text.HAL_TIM_Encoder_Stop_IT
                0x0000000000000000      0x112 build/stm32f7xx_hal_tim.o
 .text.HAL_TIM_Encoder_Start_DMA
                0x0000000000000000      0x25c build/stm32f7xx_hal_tim.o
 .text.HAL_TIM_Encoder_Stop_DMA
                0x0000000000000000      0x12c build/stm32f7xx_hal_tim.o
 .text          0x0000000000000000        0x0 build/stm32f7xx_hal_tim_ex.o
 .data          0x0000000000000000        0x0 build/stm32f7xx_hal_tim_ex.o
 .bss           0x0000000000000000        0x0 build/stm32f7xx_hal_tim_ex.o
 .text.TIM_CCxNChannelCmd
                0x0000000000000000       0x24 build/stm32f7xx_hal_tim_ex.o
 .text.TIM_DMAErrorCCxN
                0x0000000000000000       0x44 build/stm32f7xx_hal_tim_ex.o
 .text.TIM_DMADelayPulseNCplt
                0x0000000000000000       0x70 build/stm32f7xx_hal_tim_ex.o
 .text.HAL_TIMEx_HallSensor_MspInit
                0x0000000000000000        0x2 build/stm32f7xx_hal_tim_ex.o
 .text.HAL_TIMEx_HallSensor_Init
                0x0000000000000000       0xd8 build/stm32f7xx_hal_tim_ex.o
 .text.HAL_TIMEx_HallSensor_MspDeInit
                0x0000000000000000        0x2 build/stm32f7xx_hal_tim_ex.o
 .text.HAL_TIMEx_HallSensor_DeInit
                0x0000000000000000       0x4e build/stm32f7xx_hal_tim_ex.o
 .text.HAL_TIMEx_HallSensor_Start
                0x0000000000000000       0xc8 build/stm32f7xx_hal_tim_ex.o
 .text.HAL_TIMEx_HallSensor_Stop
                0x0000000000000000       0x42 build/stm32f7xx_hal_tim_ex.o
 .text.HAL_TIMEx_HallSensor_Start_IT
                0x0000000000000000       0xd4 build/stm32f7xx_hal_tim_ex.o
 .text.HAL_TIMEx_HallSensor_Stop_IT
                0x0000000000000000       0x4c build/stm32f7xx_hal_tim_ex.o
 .text.HAL_TIMEx_HallSensor_Start_DMA
                0x0000000000000000       0xfc build/stm32f7xx_hal_tim_ex.o
 .text.HAL_TIMEx_HallSensor_Stop_DMA
                0x0000000000000000       0x4a build/stm32f7xx_hal_tim_ex.o
 .text.HAL_TIMEx_OCN_Start
                0x0000000000000000      0x100 build/stm32f7xx_hal_tim_ex.o
 .text.HAL_TIMEx_OCN_Stop
                0x0000000000000000       0x76 build/stm32f7xx_hal_tim_ex.o
 .text.HAL_TIMEx_OCN_Start_IT
                0x0000000000000000      0x13c build/stm32f7xx_hal_tim_ex.o
 .text.HAL_TIMEx_OCN_Stop_IT
                0x0000000000000000       0xbc build/stm32f7xx_hal_tim_ex.o
 .text.HAL_TIMEx_OCN_Start_DMA
                0x0000000000000000      0x234 build/stm32f7xx_hal_tim_ex.o
 .text.HAL_TIMEx_OCN_Stop_DMA
                0x0000000000000000       0xb8 build/stm32f7xx_hal_tim_ex.o
 .text.HAL_TIMEx_PWMN_Start
                0x0000000000000000      0x100 build/stm32f7xx_hal_tim_ex.o
 .text.HAL_TIMEx_PWMN_Stop
                0x0000000000000000       0x76 build/stm32f7xx_hal_tim_ex.o
 .text.HAL_TIMEx_PWMN_Start_IT
                0x0000000000000000      0x13c build/stm32f7xx_hal_tim_ex.o
 .text.HAL_TIMEx_PWMN_Stop_IT
                0x0000000000000000       0xbc build/stm32f7xx_hal_tim_ex.o
 .text.HAL_TIMEx_PWMN_Start_DMA
                0x0000000000000000      0x234 build/stm32f7xx_hal_tim_ex.o
 .text.HAL_TIMEx_PWMN_Stop_DMA
                0x0000000000000000       0xb8 build/stm32f7xx_hal_tim_ex.o
 .text.HAL_TIMEx_OnePulseN_Start
                0x0000000000000000       0x76 build/stm32f7xx_hal_tim_ex.o
 .text.HAL_TIMEx_OnePulseN_Stop
                0x0000000000000000       0x72 build/stm32f7xx_hal_tim_ex.o
 .text.HAL_TIMEx_OnePulseN_Start_IT
                0x0000000000000000       0x8c build/stm32f7xx_hal_tim_ex.o
 .text.HAL_TIMEx_OnePulseN_Stop_IT
                0x0000000000000000       0x86 build/stm32f7xx_hal_tim_ex.o
 .text.HAL_TIMEx_ConfigCommutEvent
                0x0000000000000000       0x82 build/stm32f7xx_hal_tim_ex.o
 .text.HAL_TIMEx_ConfigCommutEvent_IT
                0x0000000000000000       0x82 build/stm32f7xx_hal_tim_ex.o
 .text.HAL_TIMEx_ConfigCommutEvent_DMA
                0x0000000000000000       0xa0 build/stm32f7xx_hal_tim_ex.o
 .text.HAL_TIMEx_MasterConfigSynchronization
                0x0000000000000000       0xa0 build/stm32f7xx_hal_tim_ex.o
 .text.HAL_TIMEx_ConfigBreakDeadTime
                0x0000000000000000       0x90 build/stm32f7xx_hal_tim_ex.o
 .text.HAL_TIMEx_RemapConfig
                0x0000000000000000       0x20 build/stm32f7xx_hal_tim_ex.o
 .text.HAL_TIMEx_GroupChannel5
                0x0000000000000000       0x3e build/stm32f7xx_hal_tim_ex.o
 .text.TIMEx_DMACommutationCplt
                0x0000000000000000       0x10 build/stm32f7xx_hal_tim_ex.o
 .text.HAL_TIMEx_CommutHalfCpltCallback
                0x0000000000000000        0x2 build/stm32f7xx_hal_tim_ex.o
 .text.TIMEx_DMACommutationHalfCplt
                0x0000000000000000       0x10 build/stm32f7xx_hal_tim_ex.o
 .text.HAL_TIMEx_HallSensor_GetState
                0x0000000000000000        0x6 build/stm32f7xx_hal_tim_ex.o
 .text.HAL_TIMEx_GetChannelNState
                0x0000000000000000       0x2a build/stm32f7xx_hal_tim_ex.o
 .text          0x0000000000000000        0x0 build/stm32f7xx_hal_pwr.o
 .data          0x0000000000000000        0x0 build/stm32f7xx_hal_pwr.o
 .bss           0x0000000000000000        0x0 build/stm32f7xx_hal_pwr.o
 .text.HAL_PWR_DeInit
                0x0000000000000000       0x18 build/stm32f7xx_hal_pwr.o
 .text.HAL_PWR_DisableBkUpAccess
                0x0000000000000000       0x10 build/stm32f7xx_hal_pwr.o
 .text.HAL_PWR_ConfigPVD
                0x0000000000000000       0x84 build/stm32f7xx_hal_pwr.o
 .text.HAL_PWR_EnablePVD
                0x0000000000000000       0x10 build/stm32f7xx_hal_pwr.o
 .text.HAL_PWR_DisablePVD
                0x0000000000000000       0x10 build/stm32f7xx_hal_pwr.o
 .text.HAL_PWR_EnableWakeUpPin
                0x0000000000000000       0x24 build/stm32f7xx_hal_pwr.o
 .text.HAL_PWR_DisableWakeUpPin
                0x0000000000000000       0x10 build/stm32f7xx_hal_pwr.o
 .text.HAL_PWR_EnterSLEEPMode
                0x0000000000000000       0x28 build/stm32f7xx_hal_pwr.o
 .text.HAL_PWR_EnterSTOPMode
                0x0000000000000000       0x40 build/stm32f7xx_hal_pwr.o
 .text.HAL_PWR_EnterSTANDBYMode
                0x0000000000000000       0x20 build/stm32f7xx_hal_pwr.o
 .text.HAL_PWR_PVDCallback
                0x0000000000000000        0x2 build/stm32f7xx_hal_pwr.o
 .text.HAL_PWR_PVD_IRQHandler
                0x0000000000000000       0x20 build/stm32f7xx_hal_pwr.o
 .text.HAL_PWR_EnableSleepOnExit
                0x0000000000000000       0x10 build/stm32f7xx_hal_pwr.o
 .text.HAL_PWR_DisableSleepOnExit
                0x0000000000000000       0x10 build/stm32f7xx_hal_pwr.o
 .text.HAL_PWR_EnableSEVOnPend
                0x0000000000000000       0x10 build/stm32f7xx_hal_pwr.o
 .text.HAL_PWR_DisableSEVOnPend
                0x0000000000000000       0x10 build/stm32f7xx_hal_pwr.o
 .text          0x0000000000000000        0x0 build/stm32f7xx_hal_pwr_ex.o
 .data          0x0000000000000000        0x0 build/stm32f7xx_hal_pwr_ex.o
 .bss           0x0000000000000000        0x0 build/stm32f7xx_hal_pwr_ex.o
 .text.HAL_PWREx_EnableBkUpReg
                0x0000000000000000       0x3c build/stm32f7xx_hal_pwr_ex.o
 .text.HAL_PWREx_DisableBkUpReg
                0x0000000000000000       0x3c build/stm32f7xx_hal_pwr_ex.o
 .text.HAL_PWREx_EnableFlashPowerDown
                0x0000000000000000       0x10 build/stm32f7xx_hal_pwr_ex.o
 .text.HAL_PWREx_DisableFlashPowerDown
                0x0000000000000000       0x10 build/stm32f7xx_hal_pwr_ex.o
 .text.HAL_PWREx_EnableMainRegulatorLowVoltage
                0x0000000000000000       0x10 build/stm32f7xx_hal_pwr_ex.o
 .text.HAL_PWREx_DisableMainRegulatorLowVoltage
                0x0000000000000000       0x10 build/stm32f7xx_hal_pwr_ex.o
 .text.HAL_PWREx_EnableLowRegulatorLowVoltage
                0x0000000000000000       0x10 build/stm32f7xx_hal_pwr_ex.o
 .text.HAL_PWREx_DisableLowRegulatorLowVoltage
                0x0000000000000000       0x10 build/stm32f7xx_hal_pwr_ex.o
 .text.HAL_PWREx_DisableOverDrive
                0x0000000000000000       0x7c build/stm32f7xx_hal_pwr_ex.o
 .text.HAL_PWREx_EnterUnderDriveSTOPMode
                0x0000000000000000       0x98 build/stm32f7xx_hal_pwr_ex.o
 .text.HAL_PWREx_GetVoltageRange
                0x0000000000000000       0x10 build/stm32f7xx_hal_pwr_ex.o
 .text.HAL_PWREx_ControlVoltageScaling
                0x0000000000000000       0xc0 build/stm32f7xx_hal_pwr_ex.o
 .text          0x0000000000000000        0x0 build/stm32f7xx_hal_uart.o
 .data          0x0000000000000000        0x0 build/stm32f7xx_hal_uart.o
 .bss           0x0000000000000000        0x0 build/stm32f7xx_hal_uart.o
 .text.UART_EndTxTransfer
                0x0000000000000000       0x10 build/stm32f7xx_hal_uart.o
 .text.UART_EndRxTransfer
                0x0000000000000000       0x32 build/stm32f7xx_hal_uart.o
 .text.UART_TxISR_8BIT
                0x0000000000000000       0x44 build/stm32f7xx_hal_uart.o
 .text.UART_TxISR_16BIT
                0x0000000000000000       0x48 build/stm32f7xx_hal_uart.o
 .text.HAL_UART_MspInit
                0x0000000000000000        0x2 build/stm32f7xx_hal_uart.o
 .text.HAL_UART_MspDeInit
                0x0000000000000000        0x2 build/stm32f7xx_hal_uart.o
 .text.HAL_UART_DeInit
                0x0000000000000000       0x3c build/stm32f7xx_hal_uart.o
 .text.HAL_UART_Transmit_IT
                0x0000000000000000       0x78 build/stm32f7xx_hal_uart.o
 .text.HAL_UART_Transmit_DMA
                0x0000000000000000       0xac build/stm32f7xx_hal_uart.o
 .text.HAL_UART_DMAPause
                0x0000000000000000       0x6a build/stm32f7xx_hal_uart.o
 .text.HAL_UART_DMAResume
                0x0000000000000000       0x5a build/stm32f7xx_hal_uart.o
 .text.HAL_UART_DMAStop
                0x0000000000000000       0x8a build/stm32f7xx_hal_uart.o
 .text.HAL_UART_Abort
                0x0000000000000000       0xbe build/stm32f7xx_hal_uart.o
 .text.HAL_UART_AbortTransmit
                0x0000000000000000       0x50 build/stm32f7xx_hal_uart.o
 .text.HAL_UART_AbortReceive
                0x0000000000000000       0x7e build/stm32f7xx_hal_uart.o
 .text.HAL_UART_TxCpltCallback
                0x0000000000000000        0x2 build/stm32f7xx_hal_uart.o
 .text.UART_DMATransmitCplt
                0x0000000000000000       0x30 build/stm32f7xx_hal_uart.o
 .text.UART_EndTransmit_IT
                0x0000000000000000       0x1a build/stm32f7xx_hal_uart.o
 .text.HAL_UART_TxHalfCpltCallback
                0x0000000000000000        0x2 build/stm32f7xx_hal_uart.o
 .text.UART_DMATxHalfCplt
                0x0000000000000000        0xa build/stm32f7xx_hal_uart.o
 .text.HAL_UART_RxCpltCallback
                0x0000000000000000        0x2 build/stm32f7xx_hal_uart.o
 .text.HAL_UART_RxHalfCpltCallback
                0x0000000000000000        0x2 build/stm32f7xx_hal_uart.o
 .text.HAL_UART_ErrorCallback
                0x0000000000000000        0x2 build/stm32f7xx_hal_uart.o
 .text.UART_DMAError
                0x0000000000000000       0x54 build/stm32f7xx_hal_uart.o
 .text.UART_DMAAbortOnError
                0x0000000000000000       0x14 build/stm32f7xx_hal_uart.o
 .text.HAL_UART_AbortCpltCallback
                0x0000000000000000        0x2 build/stm32f7xx_hal_uart.o
 .text.HAL_UART_Abort_IT
                0x0000000000000000       0xf4 build/stm32f7xx_hal_uart.o
 .text.UART_DMARxAbortCallback
                0x0000000000000000       0x3e build/stm32f7xx_hal_uart.o
 .text.UART_DMATxAbortCallback
                0x0000000000000000       0x34 build/stm32f7xx_hal_uart.o
 .text.HAL_UART_AbortTransmitCpltCallback
                0x0000000000000000        0x2 build/stm32f7xx_hal_uart.o
 .text.HAL_UART_AbortTransmit_IT
                0x0000000000000000       0x64 build/stm32f7xx_hal_uart.o
 .text.UART_DMATxOnlyAbortCallback
                0x0000000000000000       0x14 build/stm32f7xx_hal_uart.o
 .text.HAL_UART_AbortReceiveCpltCallback
                0x0000000000000000        0x2 build/stm32f7xx_hal_uart.o
 .text.HAL_UART_AbortReceive_IT
                0x0000000000000000       0x9c build/stm32f7xx_hal_uart.o
 .text.UART_DMARxOnlyAbortCallback
                0x0000000000000000       0x26 build/stm32f7xx_hal_uart.o
 .text.HAL_UARTEx_RxEventCallback
                0x0000000000000000        0x2 build/stm32f7xx_hal_uart.o
 .text.HAL_UART_IRQHandler
                0x0000000000000000      0x268 build/stm32f7xx_hal_uart.o
 .text.UART_RxISR_8BIT
                0x0000000000000000       0x84 build/stm32f7xx_hal_uart.o
 .text.UART_RxISR_16BIT
                0x0000000000000000       0x82 build/stm32f7xx_hal_uart.o
 .text.UART_DMARxHalfCplt
                0x0000000000000000       0x1c build/stm32f7xx_hal_uart.o
 .text.UART_DMAReceiveCplt
                0x0000000000000000       0x5e build/stm32f7xx_hal_uart.o
 .text.HAL_UART_ReceiverTimeout_Config
                0x0000000000000000        0xe build/stm32f7xx_hal_uart.o
 .text.HAL_UART_EnableReceiverTimeout
                0x0000000000000000       0x38 build/stm32f7xx_hal_uart.o
 .text.HAL_UART_DisableReceiverTimeout
                0x0000000000000000       0x38 build/stm32f7xx_hal_uart.o
 .text.HAL_MultiProcessor_EnterMuteMode
                0x0000000000000000        0xc build/stm32f7xx_hal_uart.o
 .text.HAL_HalfDuplex_EnableTransmitter
                0x0000000000000000       0x38 build/stm32f7xx_hal_uart.o
 .text.HAL_HalfDuplex_EnableReceiver
                0x0000000000000000       0x38 build/stm32f7xx_hal_uart.o
 .text.HAL_LIN_SendBreak
                0x0000000000000000       0x2e build/stm32f7xx_hal_uart.o
 .text.HAL_UART_GetState
                0x0000000000000000        0x8 build/stm32f7xx_hal_uart.o
 .text.HAL_UART_GetError
                0x0000000000000000        0x6 build/stm32f7xx_hal_uart.o
 .text.HAL_UART_Receive
                0x0000000000000000      0x12a build/stm32f7xx_hal_uart.o
 .text.HAL_HalfDuplex_Init
                0x0000000000000000       0x6e build/stm32f7xx_hal_uart.o
 .text.HAL_LIN_Init
                0x0000000000000000       0x92 build/stm32f7xx_hal_uart.o
 .text.HAL_MultiProcessor_Init
                0x0000000000000000       0x8a build/stm32f7xx_hal_uart.o
 .text.HAL_MultiProcessor_EnableMuteMode
                0x0000000000000000       0x2c build/stm32f7xx_hal_uart.o
 .text.HAL_MultiProcessor_DisableMuteMode
                0x0000000000000000       0x2c build/stm32f7xx_hal_uart.o
 .text.UART_Start_Receive_IT
                0x0000000000000000       0xac build/stm32f7xx_hal_uart.o
 .text.HAL_UART_Receive_IT
                0x0000000000000000       0x4c build/stm32f7xx_hal_uart.o
 .text.UART_Start_Receive_DMA
                0x0000000000000000       0x84 build/stm32f7xx_hal_uart.o
 .text.HAL_UART_Receive_DMA
                0x0000000000000000       0x4c build/stm32f7xx_hal_uart.o
 .text          0x0000000000000000        0x0 build/stm32f7xx_hal_uart_ex.o
 .data          0x0000000000000000        0x0 build/stm32f7xx_hal_uart_ex.o
 .bss           0x0000000000000000        0x0 build/stm32f7xx_hal_uart_ex.o
 .text.HAL_RS485Ex_Init
                0x0000000000000000       0x84 build/stm32f7xx_hal_uart_ex.o
 .text.HAL_MultiProcessorEx_AddressLength_Set
                0x0000000000000000       0x36 build/stm32f7xx_hal_uart_ex.o
 .text.HAL_UARTEx_ReceiveToIdle
                0x0000000000000000      0x16e build/stm32f7xx_hal_uart_ex.o
 .text.HAL_UARTEx_ReceiveToIdle_IT
                0x0000000000000000       0x56 build/stm32f7xx_hal_uart_ex.o
 .text.HAL_UARTEx_ReceiveToIdle_DMA
                0x0000000000000000       0x56 build/stm32f7xx_hal_uart_ex.o
 .debug_info    0x0000000000000000      0xbc5 build/stm32f7xx_hal_uart_ex.o
 .debug_abbrev  0x0000000000000000      0x211 build/stm32f7xx_hal_uart_ex.o
 .debug_loc     0x0000000000000000      0x7ad build/stm32f7xx_hal_uart_ex.o
 .debug_aranges
                0x0000000000000000       0x40 build/stm32f7xx_hal_uart_ex.o
 .debug_ranges  0x0000000000000000       0x30 build/stm32f7xx_hal_uart_ex.o
 .debug_line    0x0000000000000000      0x68e build/stm32f7xx_hal_uart_ex.o
 .debug_str     0x0000000000000000      0x8f7 build/stm32f7xx_hal_uart_ex.o
 .comment       0x0000000000000000       0x7a build/stm32f7xx_hal_uart_ex.o
 .debug_frame   0x0000000000000000       0xe8 build/stm32f7xx_hal_uart_ex.o
 .ARM.attributes
                0x0000000000000000       0x34 build/stm32f7xx_hal_uart_ex.o
 .text          0x0000000000000000        0x0 build/stm32f7xx_hal_gpio.o
 .data          0x0000000000000000        0x0 build/stm32f7xx_hal_gpio.o
 .bss           0x0000000000000000        0x0 build/stm32f7xx_hal_gpio.o
 .text.HAL_GPIO_DeInit
                0x0000000000000000      0x14c build/stm32f7xx_hal_gpio.o
 .text.HAL_GPIO_ReadPin
                0x0000000000000000        0xe build/stm32f7xx_hal_gpio.o
 .text.HAL_GPIO_LockPin
                0x0000000000000000       0x2e build/stm32f7xx_hal_gpio.o
 .text.HAL_GPIO_EXTI_Callback
                0x0000000000000000        0x2 build/stm32f7xx_hal_gpio.o
 .text.HAL_GPIO_EXTI_IRQHandler
                0x0000000000000000       0x1c build/stm32f7xx_hal_gpio.o
 .text          0x0000000000000000        0x0 build/system_stm32f7xx.o
 .data          0x0000000000000000        0x0 build/system_stm32f7xx.o
 .bss           0x0000000000000000        0x0 build/system_stm32f7xx.o
 .text.SystemCoreClockUpdate
                0x0000000000000000       0xa0 build/system_stm32f7xx.o
 .text          0x0000000000000000        0x0 build/croutine.o
 .data          0x0000000000000000        0x0 build/croutine.o
 .bss           0x0000000000000000        0x0 build/croutine.o
 .debug_info    0x0000000000000000       0x98 build/croutine.o
 .debug_abbrev  0x0000000000000000       0x48 build/croutine.o
 .debug_aranges
                0x0000000000000000       0x18 build/croutine.o
 .debug_line    0x0000000000000000      0x13c build/croutine.o
 .debug_str     0x0000000000000000      0x1fa build/croutine.o
 .comment       0x0000000000000000       0x7a build/croutine.o
 .ARM.attributes
                0x0000000000000000       0x39 build/croutine.o
 .text          0x0000000000000000        0x0 build/event_groups.o
 .data          0x0000000000000000        0x0 build/event_groups.o
 .bss           0x0000000000000000        0x0 build/event_groups.o
 .text.xEventGroupCreateStatic
                0x0000000000000000       0x52 build/event_groups.o
 .text.vEventGroupClearBitsCallback
                0x0000000000000000        0x8 build/event_groups.o
 .text.xEventGroupClearBitsFromISR
                0x0000000000000000       0x14 build/event_groups.o
 .text.xEventGroupGetBitsFromISR
                0x0000000000000000       0x20 build/event_groups.o
 .text.xEventGroupSync
                0x0000000000000000       0xe4 build/event_groups.o
 .text.vEventGroupSetBitsCallback
                0x0000000000000000        0x8 build/event_groups.o
 .text.xEventGroupSetBitsFromISR
                0x0000000000000000       0x14 build/event_groups.o
 .text.uxEventGroupGetNumber
                0x0000000000000000        0xa build/event_groups.o
 .text.vEventGroupSetNumber
                0x0000000000000000        0x4 build/event_groups.o
 .text          0x0000000000000000        0x0 build/list.o
 .data          0x0000000000000000        0x0 build/list.o
 .bss           0x0000000000000000        0x0 build/list.o
 .text          0x0000000000000000        0x0 build/queue.o
 .data          0x0000000000000000        0x0 build/queue.o
 .bss           0x0000000000000000        0x0 build/queue.o
 .text.xQueueGetMutexHolder
                0x0000000000000000       0x32 build/queue.o
 .text.xQueueGetMutexHolderFromISR
                0x0000000000000000       0x24 build/queue.o
 .text.prvInitialiseMutex
                0x0000000000000000       0x18 build/queue.o
 .text.xQueueCreateMutex
                0x0000000000000000       0x16 build/queue.o
 .text.xQueueCreateMutexStatic
                0x0000000000000000       0x1e build/queue.o
 .text.xQueueGiveMutexRecursive
                0x0000000000000000       0x44 build/queue.o
 .text.xQueueGiveFromISR
                0x0000000000000000       0xdc build/queue.o
 .text.xQueueTakeMutexRecursive
                0x0000000000000000       0x48 build/queue.o
 .text.xQueuePeek
                0x0000000000000000      0x168 build/queue.o
 .text.xQueuePeekFromISR
                0x0000000000000000       0x8e build/queue.o
 .text.uxQueueSpacesAvailable
                0x0000000000000000       0x2e build/queue.o
 .text.uxQueueMessagesWaitingFromISR
                0x0000000000000000       0x1c build/queue.o
 .text.uxQueueGetQueueNumber
                0x0000000000000000        0x4 build/queue.o
 .text.vQueueSetQueueNumber
                0x0000000000000000        0x4 build/queue.o
 .text.ucQueueGetQueueType
                0x0000000000000000        0x6 build/queue.o
 .text.xQueueIsQueueEmptyFromISR
                0x0000000000000000       0x24 build/queue.o
 .text.xQueueIsQueueFullFromISR
                0x0000000000000000       0x28 build/queue.o
 .text.pcQueueGetName
                0x0000000000000000       0x40 build/queue.o
 .text          0x0000000000000000        0x0 build/stream_buffer.o
 .data          0x0000000000000000        0x0 build/stream_buffer.o
 .bss           0x0000000000000000        0x0 build/stream_buffer.o
 .text.prvBytesInBuffer
                0x0000000000000000       0x12 build/stream_buffer.o
 .text.prvInitialiseNewStreamBuffer
                0x0000000000000000       0x44 build/stream_buffer.o
 .text.prvWriteBytesToBuffer
                0x0000000000000000       0x8e build/stream_buffer.o
 .text.prvWriteMessageToBuffer
                0x0000000000000000       0x50 build/stream_buffer.o
 .text.prvReadBytesFromBuffer
                0x0000000000000000       0x90 build/stream_buffer.o
 .text.prvReadMessageFromBuffer
                0x0000000000000000       0x4e build/stream_buffer.o
 .text.xStreamBufferGenericCreate
                0x0000000000000000       0x8a build/stream_buffer.o
 .text.xStreamBufferGenericCreateStatic
                0x0000000000000000       0xb6 build/stream_buffer.o
 .text.vStreamBufferDelete
                0x0000000000000000       0x32 build/stream_buffer.o
 .text.xStreamBufferReset
                0x0000000000000000       0x52 build/stream_buffer.o
 .text.xStreamBufferSetTriggerLevel
                0x0000000000000000       0x2e build/stream_buffer.o
 .text.xStreamBufferSpacesAvailable
                0x0000000000000000       0x3c build/stream_buffer.o
 .text.xStreamBufferBytesAvailable
                0x0000000000000000       0x20 build/stream_buffer.o
 .text.xStreamBufferSend
                0x0000000000000000      0x138 build/stream_buffer.o
 .text.xStreamBufferSendFromISR
                0x0000000000000000       0xae build/stream_buffer.o
 .text.xStreamBufferReceive
                0x0000000000000000       0xf4 build/stream_buffer.o
 .text.xStreamBufferNextMessageLengthBytes
                0x0000000000000000       0x60 build/stream_buffer.o
 .text.xStreamBufferReceiveFromISR
                0x0000000000000000       0xa8 build/stream_buffer.o
 .text.xStreamBufferIsEmpty
                0x0000000000000000       0x28 build/stream_buffer.o
 .text.xStreamBufferIsFull
                0x0000000000000000       0x3c build/stream_buffer.o
 .text.xStreamBufferSendCompletedFromISR
                0x0000000000000000       0x5c build/stream_buffer.o
 .text.xStreamBufferReceiveCompletedFromISR
                0x0000000000000000       0x5c build/stream_buffer.o
 .text.uxStreamBufferGetStreamBufferNumber
                0x0000000000000000        0x4 build/stream_buffer.o
 .text.vStreamBufferSetStreamBufferNumber
                0x0000000000000000        0x4 build/stream_buffer.o
 .text.ucStreamBufferGetStreamBufferType
                0x0000000000000000        0x8 build/stream_buffer.o
 .debug_info    0x0000000000000000     0x2634 build/stream_buffer.o
 .debug_abbrev  0x0000000000000000      0x443 build/stream_buffer.o
 .debug_loc     0x0000000000000000     0x1f4e build/stream_buffer.o
 .debug_aranges
                0x0000000000000000       0xe0 build/stream_buffer.o
 .debug_ranges  0x0000000000000000       0xd0 build/stream_buffer.o
 .debug_line    0x0000000000000000     0x16fd build/stream_buffer.o
 .debug_str     0x0000000000000000      0xde4 build/stream_buffer.o
 .comment       0x0000000000000000       0x7a build/stream_buffer.o
 .debug_frame   0x0000000000000000      0x424 build/stream_buffer.o
 .ARM.attributes
                0x0000000000000000       0x34 build/stream_buffer.o
 .text          0x0000000000000000        0x0 build/tasks.o
 .data          0x0000000000000000        0x0 build/tasks.o
 .bss           0x0000000000000000        0x0 build/tasks.o
 .text.prvTaskIsTaskSuspended
                0x0000000000000000       0x44 build/tasks.o
 .text.prvTaskCheckFreeStackSpace
                0x0000000000000000       0x14 build/tasks.o
 .text.prvWriteNameToBuffer
                0x0000000000000000       0x22 build/tasks.o
 .text.vTaskDelete
                0x0000000000000000       0xbc build/tasks.o
 .text.eTaskGetState
                0x0000000000000000       0x9c build/tasks.o
 .text.uxTaskPriorityGet
                0x0000000000000000       0x20 build/tasks.o
 .text.uxTaskPriorityGetFromISR
                0x0000000000000000       0x34 build/tasks.o
 .text.vTaskPrioritySet
                0x0000000000000000       0xf4 build/tasks.o
 .text.vTaskResume
                0x0000000000000000       0xa4 build/tasks.o
 .text.xTaskResumeFromISR
                0x0000000000000000       0xd4 build/tasks.o
 .text.vTaskEndScheduler
                0x0000000000000000       0x28 build/tasks.o
 .text.xTaskGetTickCountFromISR
                0x0000000000000000       0x10 build/tasks.o
 .text.uxTaskGetNumberOfTasks
                0x0000000000000000        0xc build/tasks.o
 .text.pcTaskGetName
                0x0000000000000000       0x2c build/tasks.o
 .text.xTaskDelayUntil
                0x0000000000000000       0xbc build/tasks.o
 .text.xTaskCatchUpTicks
                0x0000000000000000       0x3c build/tasks.o
 .text.vTaskSuspend
                0x0000000000000000       0xd4 build/tasks.o
 .text.uxTaskGetTaskNumber
                0x0000000000000000        0xa build/tasks.o
 .text.vTaskSetTaskNumber
                0x0000000000000000        0x6 build/tasks.o
 .text.vTaskGetInfo
                0x0000000000000000       0x78 build/tasks.o
 .text.prvListTasksWithinSingleList
                0x0000000000000000       0x5e build/tasks.o
 .text.uxTaskGetSystemState
                0x0000000000000000       0xb0 build/tasks.o
 .text.uxTaskGetStackHighWaterMark
                0x0000000000000000       0x18 build/tasks.o
 .rodata.vTaskList.str1.4
                0x0000000000000000        0xf build/tasks.o
 .text.vTaskList
                0x0000000000000000       0xbc build/tasks.o
 .rodata.vTaskGetRunTimeStats.str1.4
                0x0000000000000000       0x18 build/tasks.o
 .text.vTaskGetRunTimeStats
                0x0000000000000000       0x9c build/tasks.o
 .text.xTaskGenericNotifyWait
                0x0000000000000000       0xd8 build/tasks.o
 .text.xTaskGenericNotify
                0x0000000000000000      0x198 build/tasks.o
 .text.xTaskGenericNotifyFromISR
                0x0000000000000000      0x1d8 build/tasks.o
 .text.xTaskGenericNotifyStateClear
                0x0000000000000000       0x50 build/tasks.o
 .text.ulTaskGenericNotifyValueClear
                0x0000000000000000       0x34 build/tasks.o
 .text          0x0000000000000000        0x0 build/timers.o
 .data          0x0000000000000000        0x0 build/timers.o
 .bss           0x0000000000000000        0x0 build/timers.o
 .text.prvInitialiseNewTimer
                0x0000000000000000       0x4e build/timers.o
 .text.xTimerCreate
                0x0000000000000000       0x38 build/timers.o
 .text.xTimerCreateStatic
                0x0000000000000000       0x56 build/timers.o
 .text.xTimerGenericCommand
                0x0000000000000000       0x70 build/timers.o
 .text.xTimerGetTimerDaemonTaskHandle
                0x0000000000000000       0x24 build/timers.o
 .text.xTimerGetPeriod
                0x0000000000000000       0x1c build/timers.o
 .text.vTimerSetReloadMode
                0x0000000000000000       0x44 build/timers.o
 .text.uxTimerGetReloadMode
                0x0000000000000000       0x38 build/timers.o
 .text.xTimerGetExpiryTime
                0x0000000000000000       0x1c build/timers.o
 .text.pcTimerGetName
                0x0000000000000000       0x1c build/timers.o
 .text.xTimerIsTimerActive
                0x0000000000000000       0x38 build/timers.o
 .text.pvTimerGetTimerID
                0x0000000000000000       0x2a build/timers.o
 .text.vTimerSetTimerID
                0x0000000000000000       0x2a build/timers.o
 .text.xTimerPendFunctionCallFromISR
                0x0000000000000000       0x28 build/timers.o
 .text.uxTimerGetTimerNumber
                0x0000000000000000        0x4 build/timers.o
 .text.vTimerSetTimerNumber
                0x0000000000000000        0x4 build/timers.o
 .text          0x0000000000000000        0x0 build/heap_4.o
 .data          0x0000000000000000        0x0 build/heap_4.o
 .bss           0x0000000000000000        0x0 build/heap_4.o
 .text.vPortInitialiseBlocks
                0x0000000000000000        0x2 build/heap_4.o
 .text.vPortGetHeapStats
                0x0000000000000000       0x80 build/heap_4.o
 .text          0x0000000000000000        0x0 build/port.o
 .data          0x0000000000000000        0x0 build/port.o
 .bss           0x0000000000000000        0x0 build/port.o
 .text.vPortEndScheduler
                0x0000000000000000       0x28 build/port.o
 .text          0x0000000000000000        0x0 build/cmsis_os2.o
 .data          0x0000000000000000        0x0 build/cmsis_os2.o
 .bss           0x0000000000000000        0x0 build/cmsis_os2.o
 .text.TimerCallback
                0x0000000000000000       0x10 build/cmsis_os2.o
 .rodata.osKernelGetInfo.str1.4
                0x0000000000000000       0x11 build/cmsis_os2.o
 .text.osKernelGetInfo
                0x0000000000000000       0x38 build/cmsis_os2.o
 .text.osKernelGetState
                0x0000000000000000       0x24 build/cmsis_os2.o
 .text.osKernelLock
                0x0000000000000000       0x48 build/cmsis_os2.o
 .text.osKernelUnlock
                0x0000000000000000       0x58 build/cmsis_os2.o
 .text.osKernelRestoreLock
                0x0000000000000000       0x6c build/cmsis_os2.o
 .text.osKernelGetTickCount
                0x0000000000000000       0x2c build/cmsis_os2.o
 .text.osKernelGetTickFreq
                0x0000000000000000        0x6 build/cmsis_os2.o
 .text.osKernelGetSysTimerCount
                0x0000000000000000       0x3c build/cmsis_os2.o
 .text.osKernelGetSysTimerFreq
                0x0000000000000000        0xc build/cmsis_os2.o
 .text.osThreadGetName
                0x0000000000000000       0x30 build/cmsis_os2.o
 .text.osThreadGetId
                0x0000000000000000        0x8 build/cmsis_os2.o
 .text.osThreadGetState
                0x0000000000000000       0x5c build/cmsis_os2.o
 .text.osThreadGetStackSpace
                0x0000000000000000       0x30 build/cmsis_os2.o
 .text.osThreadSetPriority
                0x0000000000000000       0x54 build/cmsis_os2.o
 .text.osThreadGetPriority
                0x0000000000000000       0x3c build/cmsis_os2.o
 .text.osThreadYield
                0x0000000000000000       0x44 build/cmsis_os2.o
 .text.osThreadSuspend
                0x0000000000000000       0x3c build/cmsis_os2.o
 .text.osThreadResume
                0x0000000000000000       0x3c build/cmsis_os2.o
 .text.osThreadExit
                0x0000000000000000        0xa build/cmsis_os2.o
 .text.osThreadTerminate
                0x0000000000000000       0x50 build/cmsis_os2.o
 .text.osThreadGetCount
                0x0000000000000000       0x2c build/cmsis_os2.o
 .text.osThreadEnumerate
                0x0000000000000000       0x84 build/cmsis_os2.o
 .text.osThreadFlagsSet
                0x0000000000000000       0xa8 build/cmsis_os2.o
 .text.osThreadFlagsClear
                0x0000000000000000       0x7c build/cmsis_os2.o
 .text.osThreadFlagsGet
                0x0000000000000000       0x50 build/cmsis_os2.o
 .text.osThreadFlagsWait
                0x0000000000000000       0xd0 build/cmsis_os2.o
 .text.osDelayUntil
                0x0000000000000000       0x50 build/cmsis_os2.o
 .text.osTimerNew
                0x0000000000000000       0xb0 build/cmsis_os2.o
 .text.osTimerGetName
                0x0000000000000000       0x30 build/cmsis_os2.o
 .text.osTimerStart
                0x0000000000000000       0x54 build/cmsis_os2.o
 .text.osTimerStop
                0x0000000000000000       0x64 build/cmsis_os2.o
 .text.osTimerIsRunning
                0x0000000000000000       0x30 build/cmsis_os2.o
 .text.osTimerDelete
                0x0000000000000000       0x64 build/cmsis_os2.o
 .text.osEventFlagsNew
                0x0000000000000000       0x60 build/cmsis_os2.o
 .text.osEventFlagsSet
                0x0000000000000000       0x7c build/cmsis_os2.o
 .text.osEventFlagsClear
                0x0000000000000000       0x60 build/cmsis_os2.o
 .text.osEventFlagsGet
                0x0000000000000000       0x3c build/cmsis_os2.o
 .text.osEventFlagsWait
                0x0000000000000000       0x94 build/cmsis_os2.o
 .text.osEventFlagsDelete
                0x0000000000000000       0x3c build/cmsis_os2.o
 .text.osMutexNew
                0x0000000000000000       0xb4 build/cmsis_os2.o
 .text.osMutexAcquire
                0x0000000000000000       0x7c build/cmsis_os2.o
 .text.osMutexRelease
                0x0000000000000000       0x6c build/cmsis_os2.o
 .text.osMutexGetOwner
                0x0000000000000000       0x38 build/cmsis_os2.o
 .text.osMutexDelete
                0x0000000000000000       0x48 build/cmsis_os2.o
 .text.osSemaphoreNew
                0x0000000000000000       0xdc build/cmsis_os2.o
 .text.osSemaphoreAcquire
                0x0000000000000000       0x88 build/cmsis_os2.o
 .text.osSemaphoreRelease
                0x0000000000000000       0x7c build/cmsis_os2.o
 .text.osSemaphoreGetCount
                0x0000000000000000       0x38 build/cmsis_os2.o
 .text.osSemaphoreDelete
                0x0000000000000000       0x48 build/cmsis_os2.o
 .text.osMessageQueueGetCapacity
                0x0000000000000000        0xa build/cmsis_os2.o
 .text.osMessageQueueGetMsgSize
                0x0000000000000000        0xa build/cmsis_os2.o
 .text.osMessageQueueGetCount
                0x0000000000000000       0x38 build/cmsis_os2.o
 .text.osMessageQueueGetSpace
                0x0000000000000000       0x54 build/cmsis_os2.o
 .text.osMessageQueueReset
                0x0000000000000000       0x40 build/cmsis_os2.o
 .text.osMessageQueueDelete
                0x0000000000000000       0x48 build/cmsis_os2.o
 .text.vApplicationStackOverflowHook
                0x0000000000000000        0x2 build/cmsis_os2.o
 .text          0x0000000000000000        0x0 build/logging.o
 .data          0x0000000000000000        0x0 build/logging.o
 .bss           0x0000000000000000        0x0 build/logging.o
 .text          0x0000000000000000        0x0 build/FreeRTOS_ARP.o
 .data          0x0000000000000000        0x0 build/FreeRTOS_ARP.o
 .bss           0x0000000000000000        0x0 build/FreeRTOS_ARP.o
 .text.vARPSendGratuitous
                0x0000000000000000       0x14 build/FreeRTOS_ARP.o
 .text.xARPWaitResolution
                0x0000000000000000       0x78 build/FreeRTOS_ARP.o
 .rodata.xCheckLoopback.str1.4
                0x0000000000000000       0x2d build/FreeRTOS_ARP.o
 .text.xCheckLoopback
                0x0000000000000000       0x6c build/FreeRTOS_ARP.o
 .rodata.FreeRTOS_PrintARPCache.str1.4
                0x0000000000000000       0x51 build/FreeRTOS_ARP.o
 .text.FreeRTOS_PrintARPCache
                0x0000000000000000       0x7c build/FreeRTOS_ARP.o
 .text          0x0000000000000000        0x0 build/FreeRTOS_DHCP.o
 .data          0x0000000000000000        0x0 build/FreeRTOS_DHCP.o
 .bss           0x0000000000000000        0x0 build/FreeRTOS_DHCP.o
 .debug_info    0x0000000000000000      0xd0c build/FreeRTOS_DHCP.o
 .debug_abbrev  0x0000000000000000      0x1a7 build/FreeRTOS_DHCP.o
 .debug_aranges
                0x0000000000000000       0x18 build/FreeRTOS_DHCP.o
 .debug_line    0x0000000000000000      0x2eb build/FreeRTOS_DHCP.o
 .debug_str     0x0000000000000000      0x887 build/FreeRTOS_DHCP.o
 .comment       0x0000000000000000       0x7a build/FreeRTOS_DHCP.o
 .ARM.attributes
                0x0000000000000000       0x39 build/FreeRTOS_DHCP.o
 .text          0x0000000000000000        0x0 build/FreeRTOS_DNS.o
 .data          0x0000000000000000        0x0 build/FreeRTOS_DNS.o
 .bss           0x0000000000000000        0x0 build/FreeRTOS_DNS.o
 .text.prvReadNameField
                0x0000000000000000       0x7e build/FreeRTOS_DNS.o
 .text.prvSkipNameField
                0x0000000000000000       0x4e build/FreeRTOS_DNS.o
 .text.prvProcessDNSCache
                0x0000000000000000      0x138 build/FreeRTOS_DNS.o
 .text.prvCreateDNSMessage
                0x0000000000000000       0x64 build/FreeRTOS_DNS.o
 .text.prvCreateDNSSocket
                0x0000000000000000       0x3c build/FreeRTOS_DNS.o
 .rodata.prvParseDNSReply.str1.4
                0x0000000000000000       0x44 build/FreeRTOS_DNS.o
 .text.prvParseDNSReply
                0x0000000000000000      0x188 build/FreeRTOS_DNS.o
 .text.prvGetHostByName
                0x0000000000000000       0xf8 build/FreeRTOS_DNS.o
 .text.FreeRTOS_dnsclear
                0x0000000000000000       0x14 build/FreeRTOS_DNS.o
 .text.FreeRTOS_dnslookup
                0x0000000000000000       0x18 build/FreeRTOS_DNS.o
 .rodata.prvPrepareLookup.str1.4
                0x0000000000000000       0x32 build/FreeRTOS_DNS.o
 .text.prvPrepareLookup
                0x0000000000000000       0x7c build/FreeRTOS_DNS.o
 .text.FreeRTOS_gethostbyname
                0x0000000000000000        0x8 build/FreeRTOS_DNS.o
 .text.ulDNSHandlePacket
                0x0000000000000000       0x20 build/FreeRTOS_DNS.o
 .bss.xDNSCache
                0x0000000000000000       0xb0 build/FreeRTOS_DNS.o
 .bss.xFreeEntry.8538
                0x0000000000000000        0x4 build/FreeRTOS_DNS.o
 .rodata.xDefaultPartDNSHeader.8448
                0x0000000000000000        0xc build/FreeRTOS_DNS.o
 .debug_info    0x0000000000000000     0x28c1 build/FreeRTOS_DNS.o
 .debug_abbrev  0x0000000000000000      0x420 build/FreeRTOS_DNS.o
 .debug_loc     0x0000000000000000     0x131f build/FreeRTOS_DNS.o
 .debug_aranges
                0x0000000000000000       0x78 build/FreeRTOS_DNS.o
 .debug_ranges  0x0000000000000000      0x160 build/FreeRTOS_DNS.o
 .debug_line    0x0000000000000000      0xe8c build/FreeRTOS_DNS.o
 .debug_str     0x0000000000000000     0x1747 build/FreeRTOS_DNS.o
 .comment       0x0000000000000000       0x7a build/FreeRTOS_DNS.o
 .debug_frame   0x0000000000000000      0x1f4 build/FreeRTOS_DNS.o
 .ARM.attributes
                0x0000000000000000       0x34 build/FreeRTOS_DNS.o
 .text          0x0000000000000000        0x0 build/FreeRTOS_IP.o
 .data          0x0000000000000000        0x0 build/FreeRTOS_IP.o
 .bss           0x0000000000000000        0x0 build/FreeRTOS_IP.o
 .text.FreeRTOS_GetIPTaskHandle
                0x0000000000000000        0xc build/FreeRTOS_IP.o
 .text.FreeRTOS_NetworkDownFromISR
                0x0000000000000000       0x3c build/FreeRTOS_IP.o
 .text.FreeRTOS_GetUDPPayloadBuffer
                0x0000000000000000       0x24 build/FreeRTOS_IP.o
 .text.pxDuplicateNetworkBufferWithDescriptor
                0x0000000000000000       0x2e build/FreeRTOS_IP.o
 .text.FreeRTOS_ReleaseUDPPayloadBuffer
                0x0000000000000000        0xc build/FreeRTOS_IP.o
 .text.FreeRTOS_SetAddressConfiguration
                0x0000000000000000       0x4c build/FreeRTOS_IP.o
 .text.usGenerateChecksum
                0x0000000000000000       0xdc build/FreeRTOS_IP.o
 .text.FreeRTOS_GetIPAddress
                0x0000000000000000        0xc build/FreeRTOS_IP.o
 .text.FreeRTOS_SetIPAddress
                0x0000000000000000        0xc build/FreeRTOS_IP.o
 .text.FreeRTOS_GetGatewayAddress
                0x0000000000000000        0xc build/FreeRTOS_IP.o
 .text.FreeRTOS_GetDNSServerAddress
                0x0000000000000000        0xc build/FreeRTOS_IP.o
 .text.FreeRTOS_GetNetmask
                0x0000000000000000        0xc build/FreeRTOS_IP.o
 .text.FreeRTOS_UpdateMACAddress
                0x0000000000000000       0x14 build/FreeRTOS_IP.o
 .text.FreeRTOS_SetNetmask
                0x0000000000000000        0xc build/FreeRTOS_IP.o
 .text.FreeRTOS_SetGatewayAddress
                0x0000000000000000        0xc build/FreeRTOS_IP.o
 .rodata.FreeRTOS_strerror_r.str1.4
                0x0000000000000000       0xaf build/FreeRTOS_IP.o
 .text.FreeRTOS_strerror_r
                0x0000000000000000      0x168 build/FreeRTOS_IP.o
 .text.FreeRTOS_max_int32
                0x0000000000000000        0x8 build/FreeRTOS_IP.o
 .text.FreeRTOS_round_down
                0x0000000000000000        0xa build/FreeRTOS_IP.o
 .text.eConsiderFrameForProcessing
                0x0000000000000000       0x44 build/FreeRTOS_IP.o
 .text.vCastPointerTo_IPHeader_t
                0x0000000000000000        0x2 build/FreeRTOS_IP.o
 .text.vCastPointerTo_ICMPHeader_t
                0x0000000000000000        0x2 build/FreeRTOS_IP.o
 .text.FreeRTOS_SendPingRequest
                0x0000000000000000       0xc0 build/FreeRTOS_IP.o
 .text.vCastConstPointerTo_ICMPHeader_t
                0x0000000000000000        0x2 build/FreeRTOS_IP.o
 .text.vCastConstPointerTo_ARPPacket_t
                0x0000000000000000        0x2 build/FreeRTOS_IP.o
 .rodata.usGenerateProtocolChecksum.str1.4
                0x0000000000000000       0x66 build/FreeRTOS_IP.o
 .text.usGenerateProtocolChecksum
                0x0000000000000000      0x228 build/FreeRTOS_IP.o
 .text.vCastConstPointerTo_ProtocolPacket_t
                0x0000000000000000        0x2 build/FreeRTOS_IP.o
 .text.vCastConstPointerTo_SocketSelect_t
                0x0000000000000000        0x2 build/FreeRTOS_IP.o
 .text.vCastPointerTo_SocketSelectMessage_t
                0x0000000000000000        0x2 build/FreeRTOS_IP.o
 .text.vCastConstPointerTo_SocketSelectMessage_t
                0x0000000000000000        0x2 build/FreeRTOS_IP.o
 .bss.usSequenceNumber.8578
                0x0000000000000000        0x2 build/FreeRTOS_IP.o
 .bss.xCount.8722
                0x0000000000000000        0x4 build/FreeRTOS_IP.o
 .rodata.xNetworkDownEvent.8507
                0x0000000000000000        0x8 build/FreeRTOS_IP.o
 .text          0x0000000000000000        0x0 build/FreeRTOS_Sockets.o
 .data          0x0000000000000000        0x0 build/FreeRTOS_Sockets.o
 .bss           0x0000000000000000        0x0 build/FreeRTOS_Sockets.o
 .text.prvValidSocket
                0x0000000000000000       0x28 build/FreeRTOS_Sockets.o
 .text.bMayConnect
                0x0000000000000000       0x22 build/FreeRTOS_Sockets.o
 .text.prvFindSelectedSocket
                0x0000000000000000       0x3a build/FreeRTOS_Sockets.o
 .text.prvTCPSendCheck
                0x0000000000000000       0x7c build/FreeRTOS_Sockets.o
 .text.FreeRTOS_CreateSocketSet
                0x0000000000000000       0x2c build/FreeRTOS_Sockets.o
 .rodata.FreeRTOS_DeleteSocketSet.str1.4
                0x0000000000000000       0x3b build/FreeRTOS_Sockets.o
 .text.FreeRTOS_DeleteSocketSet
                0x0000000000000000       0x2c build/FreeRTOS_Sockets.o
 .text.FreeRTOS_FD_SET
                0x0000000000000000       0x52 build/FreeRTOS_Sockets.o
 .text.FreeRTOS_FD_CLR
                0x0000000000000000       0x50 build/FreeRTOS_Sockets.o
 .text.FreeRTOS_FD_ISSET
                0x0000000000000000       0x42 build/FreeRTOS_Sockets.o
 .text.FreeRTOS_select
                0x0000000000000000       0x5a build/FreeRTOS_Sockets.o
 .text.FreeRTOS_recvfrom
                0x0000000000000000       0xd6 build/FreeRTOS_Sockets.o
 .text.FreeRTOS_closesocket
                0x0000000000000000       0x32 build/FreeRTOS_Sockets.o
 .text.FreeRTOS_inet_ntop4
                0x0000000000000000       0x16 build/FreeRTOS_Sockets.o
 .text.FreeRTOS_inet_ntop
                0x0000000000000000       0x18 build/FreeRTOS_Sockets.o
 .text.FreeRTOS_inet_pton4
                0x0000000000000000       0x90 build/FreeRTOS_Sockets.o
 .text.FreeRTOS_inet_pton
                0x0000000000000000       0x16 build/FreeRTOS_Sockets.o
 .text.FreeRTOS_inet_addr
                0x0000000000000000       0x16 build/FreeRTOS_Sockets.o
 .text.FreeRTOS_GetLocalAddress
                0x0000000000000000       0x18 build/FreeRTOS_Sockets.o
 .text.FreeRTOS_accept
                0x0000000000000000      0x116 build/FreeRTOS_Sockets.o
 .text.FreeRTOS_recv
                0x0000000000000000      0x122 build/FreeRTOS_Sockets.o
 .text.FreeRTOS_get_tx_head
                0x0000000000000000       0x3e build/FreeRTOS_Sockets.o
 .text.FreeRTOS_send
                0x0000000000000000      0x106 build/FreeRTOS_Sockets.o
 .text.FreeRTOS_listen
                0x0000000000000000       0x8c build/FreeRTOS_Sockets.o
 .text.FreeRTOS_shutdown
                0x0000000000000000       0x3e build/FreeRTOS_Sockets.o
 .text.FreeRTOS_get_rx_buf
                0x0000000000000000       0x18 build/FreeRTOS_Sockets.o
 .text.FreeRTOS_GetRemoteAddress
                0x0000000000000000       0x3c build/FreeRTOS_Sockets.o
 .text.FreeRTOS_maywrite
                0x0000000000000000       0x3a build/FreeRTOS_Sockets.o
 .text.FreeRTOS_issocketconnected
                0x0000000000000000       0x26 build/FreeRTOS_Sockets.o
 .text.prvTCPConnectStart
                0x0000000000000000       0xaa build/FreeRTOS_Sockets.o
 .text.FreeRTOS_connect
                0x0000000000000000       0x60 build/FreeRTOS_Sockets.o
 .text.FreeRTOS_mss
                0x0000000000000000       0x14 build/FreeRTOS_Sockets.o
 .text.FreeRTOS_connstatus
                0x0000000000000000       0x14 build/FreeRTOS_Sockets.o
 .text.xSocketValid
                0x0000000000000000       0x10 build/FreeRTOS_Sockets.o
 .text.FreeRTOS_netstat
                0x0000000000000000       0x1e build/FreeRTOS_Sockets.o
 .text          0x0000000000000000        0x0 build/FreeRTOS_Stream_Buffer.o
 .data          0x0000000000000000        0x0 build/FreeRTOS_Stream_Buffer.o
 .bss           0x0000000000000000        0x0 build/FreeRTOS_Stream_Buffer.o
 .text.vStreamBufferClear
                0x0000000000000000        0xc build/FreeRTOS_Stream_Buffer.o
 .text.uxStreamBufferGetPtr
                0x0000000000000000       0x1e build/FreeRTOS_Stream_Buffer.o
 .text          0x0000000000000000        0x0 build/FreeRTOS_TCP_IP.o
 .data          0x0000000000000000        0x0 build/FreeRTOS_TCP_IP.o
 .bss           0x0000000000000000        0x0 build/FreeRTOS_TCP_IP.o
 .text          0x0000000000000000        0x0 build/FreeRTOS_TCP_WIN.o
 .data          0x0000000000000000        0x0 build/FreeRTOS_TCP_WIN.o
 .bss           0x0000000000000000        0x0 build/FreeRTOS_TCP_WIN.o
 .text.vTCPSegmentCleanup
                0x0000000000000000       0x18 build/FreeRTOS_TCP_WIN.o
 .bss.xTCPWindowLoggingLevel
                0x0000000000000000        0x4 build/FreeRTOS_TCP_WIN.o
 .text          0x0000000000000000        0x0 build/FreeRTOS_UDP_IP.o
 .data          0x0000000000000000        0x0 build/FreeRTOS_UDP_IP.o
 .bss           0x0000000000000000        0x0 build/FreeRTOS_UDP_IP.o
 .text          0x0000000000000000        0x0 build/BufferAllocation_1.o
 .data          0x0000000000000000        0x0 build/BufferAllocation_1.o
 .bss           0x0000000000000000        0x0 build/BufferAllocation_1.o
 .text.pxNetworkBufferGetFromISR
                0x0000000000000000       0x5c build/BufferAllocation_1.o
 .text.vNetworkBufferReleaseFromISR
                0x0000000000000000       0x44 build/BufferAllocation_1.o
 .text.pxResizeNetworkBufferWithDescriptor
                0x0000000000000000        0x4 build/BufferAllocation_1.o
 .text          0x0000000000000000        0x0 build/phyHandling.o
 .data          0x0000000000000000        0x0 build/phyHandling.o
 .bss           0x0000000000000000        0x0 build/phyHandling.o
 .text          0x0000000000000000        0x0 build/NetworkInterface.o
 .data          0x0000000000000000        0x0 build/NetworkInterface.o
 .bss           0x0000000000000000        0x0 build/NetworkInterface.o
 .text.xGetPhyLinkStatus
                0x0000000000000000       0x14 build/NetworkInterface.o
 .text.xReadPhyBasicStatus
                0x0000000000000000       0x1c build/NetworkInterface.o
 .text          0x0000000000000000        0x0 build/stm32fxx_hal_eth.o
 .data          0x0000000000000000        0x0 build/stm32fxx_hal_eth.o
 .bss           0x0000000000000000        0x0 build/stm32fxx_hal_eth.o
 .text.HAL_ETH_MspInit
                0x0000000000000000        0x2 build/stm32fxx_hal_eth.o
 .text.HAL_ETH_MspDeInit
                0x0000000000000000        0x2 build/stm32fxx_hal_eth.o
 .text.HAL_ETH_DeInit
                0x0000000000000000       0x1a build/stm32fxx_hal_eth.o
 .text.HAL_ETH_TxCpltCallback
                0x0000000000000000        0x2 build/stm32fxx_hal_eth.o
 .text.HAL_ETH_RxCpltCallback
                0x0000000000000000        0x2 build/stm32fxx_hal_eth.o
 .text.HAL_ETH_ConfigDMA
                0x0000000000000000       0xa0 build/stm32fxx_hal_eth.o
 .text.HAL_ETH_GetState
                0x0000000000000000        0x6 build/stm32fxx_hal_eth.o
 .text          0x0000000000000000       0x14 build/startup_stm32f746xx.o
 .data          0x0000000000000000        0x0 build/startup_stm32f746xx.o
 .bss           0x0000000000000000        0x0 build/startup_stm32f746xx.o
 .text          0x0000000000000000        0x0 /usr/local/Caskroom/gcc-arm-embedded/9-2019-q4-major/gcc-arm-none-eabi-9-2019-q4-major/bin/../lib/gcc/arm-none-eabi/9.2.1/../../../../arm-none-eabi/lib/thumb/v7e-m+fp/hard/libc_nano.a(lib_a-exit.o)
 .data          0x0000000000000000        0x0 /usr/local/Caskroom/gcc-arm-embedded/9-2019-q4-major/gcc-arm-none-eabi-9-2019-q4-major/bin/../lib/gcc/arm-none-eabi/9.2.1/../../../../arm-none-eabi/lib/thumb/v7e-m+fp/hard/libc_nano.a(lib_a-exit.o)
 .bss           0x0000000000000000        0x0 /usr/local/Caskroom/gcc-arm-embedded/9-2019-q4-major/gcc-arm-none-eabi-9-2019-q4-major/bin/../lib/gcc/arm-none-eabi/9.2.1/../../../../arm-none-eabi/lib/thumb/v7e-m+fp/hard/libc_nano.a(lib_a-exit.o)
 .text.exit     0x0000000000000000       0x28 /usr/local/Caskroom/gcc-arm-embedded/9-2019-q4-major/gcc-arm-none-eabi-9-2019-q4-major/bin/../lib/gcc/arm-none-eabi/9.2.1/../../../../arm-none-eabi/lib/thumb/v7e-m+fp/hard/libc_nano.a(lib_a-exit.o)
 .debug_frame   0x0000000000000000       0x28 /usr/local/Caskroom/gcc-arm-embedded/9-2019-q4-major/gcc-arm-none-eabi-9-2019-q4-major/bin/../lib/gcc/arm-none-eabi/9.2.1/../../../../arm-none-eabi/lib/thumb/v7e-m+fp/hard/libc_nano.a(lib_a-exit.o)
 .ARM.attributes
                0x0000000000000000       0x34 /usr/local/Caskroom/gcc-arm-embedded/9-2019-q4-major/gcc-arm-none-eabi-9-2019-q4-major/bin/../lib/gcc/arm-none-eabi/9.2.1/../../../../arm-none-eabi/lib/thumb/v7e-m+fp/hard/libc_nano.a(lib_a-exit.o)
 .text          0x0000000000000000        0x0 /usr/local/Caskroom/gcc-arm-embedded/9-2019-q4-major/gcc-arm-none-eabi-9-2019-q4-major/bin/../lib/gcc/arm-none-eabi/9.2.1/../../../../arm-none-eabi/lib/thumb/v7e-m+fp/hard/libc_nano.a(lib_a-impure.o)
 .data          0x0000000000000000        0x0 /usr/local/Caskroom/gcc-arm-embedded/9-2019-q4-major/gcc-arm-none-eabi-9-2019-q4-major/bin/../lib/gcc/arm-none-eabi/9.2.1/../../../../arm-none-eabi/lib/thumb/v7e-m+fp/hard/libc_nano.a(lib_a-impure.o)
 .bss           0x0000000000000000        0x0 /usr/local/Caskroom/gcc-arm-embedded/9-2019-q4-major/gcc-arm-none-eabi-9-2019-q4-major/bin/../lib/gcc/arm-none-eabi/9.2.1/../../../../arm-none-eabi/lib/thumb/v7e-m+fp/hard/libc_nano.a(lib_a-impure.o)
 .rodata._global_impure_ptr
                0x0000000000000000        0x4 /usr/local/Caskroom/gcc-arm-embedded/9-2019-q4-major/gcc-arm-none-eabi-9-2019-q4-major/bin/../lib/gcc/arm-none-eabi/9.2.1/../../../../arm-none-eabi/lib/thumb/v7e-m+fp/hard/libc_nano.a(lib_a-impure.o)
 .text          0x0000000000000000        0x0 /usr/local/Caskroom/gcc-arm-embedded/9-2019-q4-major/gcc-arm-none-eabi-9-2019-q4-major/bin/../lib/gcc/arm-none-eabi/9.2.1/../../../../arm-none-eabi/lib/thumb/v7e-m+fp/hard/libc_nano.a(lib_a-init.o)
 .data          0x0000000000000000        0x0 /usr/local/Caskroom/gcc-arm-embedded/9-2019-q4-major/gcc-arm-none-eabi-9-2019-q4-major/bin/../lib/gcc/arm-none-eabi/9.2.1/../../../../arm-none-eabi/lib/thumb/v7e-m+fp/hard/libc_nano.a(lib_a-init.o)
 .bss           0x0000000000000000        0x0 /usr/local/Caskroom/gcc-arm-embedded/9-2019-q4-major/gcc-arm-none-eabi-9-2019-q4-major/bin/../lib/gcc/arm-none-eabi/9.2.1/../../../../arm-none-eabi/lib/thumb/v7e-m+fp/hard/libc_nano.a(lib_a-init.o)
 .text          0x0000000000000000        0x0 /usr/local/Caskroom/gcc-arm-embedded/9-2019-q4-major/gcc-arm-none-eabi-9-2019-q4-major/bin/../lib/gcc/arm-none-eabi/9.2.1/../../../../arm-none-eabi/lib/thumb/v7e-m+fp/hard/libc_nano.a(lib_a-memcmp.o)
 .data          0x0000000000000000        0x0 /usr/local/Caskroom/gcc-arm-embedded/9-2019-q4-major/gcc-arm-none-eabi-9-2019-q4-major/bin/../lib/gcc/arm-none-eabi/9.2.1/../../../../arm-none-eabi/lib/thumb/v7e-m+fp/hard/libc_nano.a(lib_a-memcmp.o)
 .bss           0x0000000000000000        0x0 /usr/local/Caskroom/gcc-arm-embedded/9-2019-q4-major/gcc-arm-none-eabi-9-2019-q4-major/bin/../lib/gcc/arm-none-eabi/9.2.1/../../../../arm-none-eabi/lib/thumb/v7e-m+fp/hard/libc_nano.a(lib_a-memcmp.o)
 .text          0x0000000000000000        0x0 /usr/local/Caskroom/gcc-arm-embedded/9-2019-q4-major/gcc-arm-none-eabi-9-2019-q4-major/bin/../lib/gcc/arm-none-eabi/9.2.1/../../../../arm-none-eabi/lib/thumb/v7e-m+fp/hard/libc_nano.a(lib_a-memcpy-stub.o)
 .data          0x0000000000000000        0x0 /usr/local/Caskroom/gcc-arm-embedded/9-2019-q4-major/gcc-arm-none-eabi-9-2019-q4-major/bin/../lib/gcc/arm-none-eabi/9.2.1/../../../../arm-none-eabi/lib/thumb/v7e-m+fp/hard/libc_nano.a(lib_a-memcpy-stub.o)
 .bss           0x0000000000000000        0x0 /usr/local/Caskroom/gcc-arm-embedded/9-2019-q4-major/gcc-arm-none-eabi-9-2019-q4-major/bin/../lib/gcc/arm-none-eabi/9.2.1/../../../../arm-none-eabi/lib/thumb/v7e-m+fp/hard/libc_nano.a(lib_a-memcpy-stub.o)
 .text          0x0000000000000000        0x0 /usr/local/Caskroom/gcc-arm-embedded/9-2019-q4-major/gcc-arm-none-eabi-9-2019-q4-major/bin/../lib/gcc/arm-none-eabi/9.2.1/../../../../arm-none-eabi/lib/thumb/v7e-m+fp/hard/libc_nano.a(lib_a-memmove.o)
 .data          0x0000000000000000        0x0 /usr/local/Caskroom/gcc-arm-embedded/9-2019-q4-major/gcc-arm-none-eabi-9-2019-q4-major/bin/../lib/gcc/arm-none-eabi/9.2.1/../../../../arm-none-eabi/lib/thumb/v7e-m+fp/hard/libc_nano.a(lib_a-memmove.o)
 .bss           0x0000000000000000        0x0 /usr/local/Caskroom/gcc-arm-embedded/9-2019-q4-major/gcc-arm-none-eabi-9-2019-q4-major/bin/../lib/gcc/arm-none-eabi/9.2.1/../../../../arm-none-eabi/lib/thumb/v7e-m+fp/hard/libc_nano.a(lib_a-memmove.o)
 .text          0x0000000000000000        0x0 /usr/local/Caskroom/gcc-arm-embedded/9-2019-q4-major/gcc-arm-none-eabi-9-2019-q4-major/bin/../lib/gcc/arm-none-eabi/9.2.1/../../../../arm-none-eabi/lib/thumb/v7e-m+fp/hard/libc_nano.a(lib_a-memset.o)
 .data          0x0000000000000000        0x0 /usr/local/Caskroom/gcc-arm-embedded/9-2019-q4-major/gcc-arm-none-eabi-9-2019-q4-major/bin/../lib/gcc/arm-none-eabi/9.2.1/../../../../arm-none-eabi/lib/thumb/v7e-m+fp/hard/libc_nano.a(lib_a-memset.o)
 .bss           0x0000000000000000        0x0 /usr/local/Caskroom/gcc-arm-embedded/9-2019-q4-major/gcc-arm-none-eabi-9-2019-q4-major/bin/../lib/gcc/arm-none-eabi/9.2.1/../../../../arm-none-eabi/lib/thumb/v7e-m+fp/hard/libc_nano.a(lib_a-memset.o)
 .text          0x0000000000000000        0x0 /usr/local/Caskroom/gcc-arm-embedded/9-2019-q4-major/gcc-arm-none-eabi-9-2019-q4-major/bin/../lib/gcc/arm-none-eabi/9.2.1/../../../../arm-none-eabi/lib/thumb/v7e-m+fp/hard/libc_nano.a(lib_a-snprintf.o)
 .data          0x0000000000000000        0x0 /usr/local/Caskroom/gcc-arm-embedded/9-2019-q4-major/gcc-arm-none-eabi-9-2019-q4-major/bin/../lib/gcc/arm-none-eabi/9.2.1/../../../../arm-none-eabi/lib/thumb/v7e-m+fp/hard/libc_nano.a(lib_a-snprintf.o)
 .bss           0x0000000000000000        0x0 /usr/local/Caskroom/gcc-arm-embedded/9-2019-q4-major/gcc-arm-none-eabi-9-2019-q4-major/bin/../lib/gcc/arm-none-eabi/9.2.1/../../../../arm-none-eabi/lib/thumb/v7e-m+fp/hard/libc_nano.a(lib_a-snprintf.o)
 .text._snprintf_r
                0x0000000000000000       0x5e /usr/local/Caskroom/gcc-arm-embedded/9-2019-q4-major/gcc-arm-none-eabi-9-2019-q4-major/bin/../lib/gcc/arm-none-eabi/9.2.1/../../../../arm-none-eabi/lib/thumb/v7e-m+fp/hard/libc_nano.a(lib_a-snprintf.o)
 .text          0x0000000000000000        0x0 /usr/local/Caskroom/gcc-arm-embedded/9-2019-q4-major/gcc-arm-none-eabi-9-2019-q4-major/bin/../lib/gcc/arm-none-eabi/9.2.1/../../../../arm-none-eabi/lib/thumb/v7e-m+fp/hard/libc_nano.a(lib_a-sprintf.o)
 .data          0x0000000000000000        0x0 /usr/local/Caskroom/gcc-arm-embedded/9-2019-q4-major/gcc-arm-none-eabi-9-2019-q4-major/bin/../lib/gcc/arm-none-eabi/9.2.1/../../../../arm-none-eabi/lib/thumb/v7e-m+fp/hard/libc_nano.a(lib_a-sprintf.o)
 .bss           0x0000000000000000        0x0 /usr/local/Caskroom/gcc-arm-embedded/9-2019-q4-major/gcc-arm-none-eabi-9-2019-q4-major/bin/../lib/gcc/arm-none-eabi/9.2.1/../../../../arm-none-eabi/lib/thumb/v7e-m+fp/hard/libc_nano.a(lib_a-sprintf.o)
 .text._sprintf_r
                0x0000000000000000       0x38 /usr/local/Caskroom/gcc-arm-embedded/9-2019-q4-major/gcc-arm-none-eabi-9-2019-q4-major/bin/../lib/gcc/arm-none-eabi/9.2.1/../../../../arm-none-eabi/lib/thumb/v7e-m+fp/hard/libc_nano.a(lib_a-sprintf.o)
 .text.sprintf  0x0000000000000000       0x40 /usr/local/Caskroom/gcc-arm-embedded/9-2019-q4-major/gcc-arm-none-eabi-9-2019-q4-major/bin/../lib/gcc/arm-none-eabi/9.2.1/../../../../arm-none-eabi/lib/thumb/v7e-m+fp/hard/libc_nano.a(lib_a-sprintf.o)
 .debug_frame   0x0000000000000000       0x6c /usr/local/Caskroom/gcc-arm-embedded/9-2019-q4-major/gcc-arm-none-eabi-9-2019-q4-major/bin/../lib/gcc/arm-none-eabi/9.2.1/../../../../arm-none-eabi/lib/thumb/v7e-m+fp/hard/libc_nano.a(lib_a-sprintf.o)
 .ARM.attributes
                0x0000000000000000       0x34 /usr/local/Caskroom/gcc-arm-embedded/9-2019-q4-major/gcc-arm-none-eabi-9-2019-q4-major/bin/../lib/gcc/arm-none-eabi/9.2.1/../../../../arm-none-eabi/lib/thumb/v7e-m+fp/hard/libc_nano.a(lib_a-sprintf.o)
 .text          0x0000000000000000       0x14 /usr/local/Caskroom/gcc-arm-embedded/9-2019-q4-major/gcc-arm-none-eabi-9-2019-q4-major/bin/../lib/gcc/arm-none-eabi/9.2.1/../../../../arm-none-eabi/lib/thumb/v7e-m+fp/hard/libc_nano.a(lib_a-strcmp.o)
 .data          0x0000000000000000        0x0 /usr/local/Caskroom/gcc-arm-embedded/9-2019-q4-major/gcc-arm-none-eabi-9-2019-q4-major/bin/../lib/gcc/arm-none-eabi/9.2.1/../../../../arm-none-eabi/lib/thumb/v7e-m+fp/hard/libc_nano.a(lib_a-strcmp.o)
 .bss           0x0000000000000000        0x0 /usr/local/Caskroom/gcc-arm-embedded/9-2019-q4-major/gcc-arm-none-eabi-9-2019-q4-major/bin/../lib/gcc/arm-none-eabi/9.2.1/../../../../arm-none-eabi/lib/thumb/v7e-m+fp/hard/libc_nano.a(lib_a-strcmp.o)
 .debug_frame   0x0000000000000000       0x20 /usr/local/Caskroom/gcc-arm-embedded/9-2019-q4-major/gcc-arm-none-eabi-9-2019-q4-major/bin/../lib/gcc/arm-none-eabi/9.2.1/../../../../arm-none-eabi/lib/thumb/v7e-m+fp/hard/libc_nano.a(lib_a-strcmp.o)
 .ARM.attributes
                0x0000000000000000       0x1c /usr/local/Caskroom/gcc-arm-embedded/9-2019-q4-major/gcc-arm-none-eabi-9-2019-q4-major/bin/../lib/gcc/arm-none-eabi/9.2.1/../../../../arm-none-eabi/lib/thumb/v7e-m+fp/hard/libc_nano.a(lib_a-strcmp.o)
 .text          0x0000000000000000        0x0 /usr/local/Caskroom/gcc-arm-embedded/9-2019-q4-major/gcc-arm-none-eabi-9-2019-q4-major/bin/../lib/gcc/arm-none-eabi/9.2.1/../../../../arm-none-eabi/lib/thumb/v7e-m+fp/hard/libc_nano.a(lib_a-strcpy.o)
 .data          0x0000000000000000        0x0 /usr/local/Caskroom/gcc-arm-embedded/9-2019-q4-major/gcc-arm-none-eabi-9-2019-q4-major/bin/../lib/gcc/arm-none-eabi/9.2.1/../../../../arm-none-eabi/lib/thumb/v7e-m+fp/hard/libc_nano.a(lib_a-strcpy.o)
 .bss           0x0000000000000000        0x0 /usr/local/Caskroom/gcc-arm-embedded/9-2019-q4-major/gcc-arm-none-eabi-9-2019-q4-major/bin/../lib/gcc/arm-none-eabi/9.2.1/../../../../arm-none-eabi/lib/thumb/v7e-m+fp/hard/libc_nano.a(lib_a-strcpy.o)
 .text.strcpy   0x0000000000000000       0x10 /usr/local/Caskroom/gcc-arm-embedded/9-2019-q4-major/gcc-arm-none-eabi-9-2019-q4-major/bin/../lib/gcc/arm-none-eabi/9.2.1/../../../../arm-none-eabi/lib/thumb/v7e-m+fp/hard/libc_nano.a(lib_a-strcpy.o)
 .debug_frame   0x0000000000000000       0x20 /usr/local/Caskroom/gcc-arm-embedded/9-2019-q4-major/gcc-arm-none-eabi-9-2019-q4-major/bin/../lib/gcc/arm-none-eabi/9.2.1/../../../../arm-none-eabi/lib/thumb/v7e-m+fp/hard/libc_nano.a(lib_a-strcpy.o)
 .ARM.attributes
                0x0000000000000000       0x34 /usr/local/Caskroom/gcc-arm-embedded/9-2019-q4-major/gcc-arm-none-eabi-9-2019-q4-major/bin/../lib/gcc/arm-none-eabi/9.2.1/../../../../arm-none-eabi/lib/thumb/v7e-m+fp/hard/libc_nano.a(lib_a-strcpy.o)
 .text          0x0000000000000000       0x10 /usr/local/Caskroom/gcc-arm-embedded/9-2019-q4-major/gcc-arm-none-eabi-9-2019-q4-major/bin/../lib/gcc/arm-none-eabi/9.2.1/../../../../arm-none-eabi/lib/thumb/v7e-m+fp/hard/libc_nano.a(lib_a-strlen.o)
 .data          0x0000000000000000        0x0 /usr/local/Caskroom/gcc-arm-embedded/9-2019-q4-major/gcc-arm-none-eabi-9-2019-q4-major/bin/../lib/gcc/arm-none-eabi/9.2.1/../../../../arm-none-eabi/lib/thumb/v7e-m+fp/hard/libc_nano.a(lib_a-strlen.o)
 .bss           0x0000000000000000        0x0 /usr/local/Caskroom/gcc-arm-embedded/9-2019-q4-major/gcc-arm-none-eabi-9-2019-q4-major/bin/../lib/gcc/arm-none-eabi/9.2.1/../../../../arm-none-eabi/lib/thumb/v7e-m+fp/hard/libc_nano.a(lib_a-strlen.o)
 .ARM.attributes
                0x0000000000000000       0x17 /usr/local/Caskroom/gcc-arm-embedded/9-2019-q4-major/gcc-arm-none-eabi-9-2019-q4-major/bin/../lib/gcc/arm-none-eabi/9.2.1/../../../../arm-none-eabi/lib/thumb/v7e-m+fp/hard/libc_nano.a(lib_a-strlen.o)
 .text          0x0000000000000000        0x0 /usr/local/Caskroom/gcc-arm-embedded/9-2019-q4-major/gcc-arm-none-eabi-9-2019-q4-major/bin/../lib/gcc/arm-none-eabi/9.2.1/../../../../arm-none-eabi/lib/thumb/v7e-m+fp/hard/libc_nano.a(lib_a-vsnprintf.o)
 .data          0x0000000000000000        0x0 /usr/local/Caskroom/gcc-arm-embedded/9-2019-q4-major/gcc-arm-none-eabi-9-2019-q4-major/bin/../lib/gcc/arm-none-eabi/9.2.1/../../../../arm-none-eabi/lib/thumb/v7e-m+fp/hard/libc_nano.a(lib_a-vsnprintf.o)
 .bss           0x0000000000000000        0x0 /usr/local/Caskroom/gcc-arm-embedded/9-2019-q4-major/gcc-arm-none-eabi-9-2019-q4-major/bin/../lib/gcc/arm-none-eabi/9.2.1/../../../../arm-none-eabi/lib/thumb/v7e-m+fp/hard/libc_nano.a(lib_a-vsnprintf.o)
 .text          0x0000000000000000        0x0 /usr/local/Caskroom/gcc-arm-embedded/9-2019-q4-major/gcc-arm-none-eabi-9-2019-q4-major/bin/../lib/gcc/arm-none-eabi/9.2.1/../../../../arm-none-eabi/lib/thumb/v7e-m+fp/hard/libc_nano.a(lib_a-nano-svfprintf.o)
 .data          0x0000000000000000        0x0 /usr/local/Caskroom/gcc-arm-embedded/9-2019-q4-major/gcc-arm-none-eabi-9-2019-q4-major/bin/../lib/gcc/arm-none-eabi/9.2.1/../../../../arm-none-eabi/lib/thumb/v7e-m+fp/hard/libc_nano.a(lib_a-nano-svfprintf.o)
 .bss           0x0000000000000000        0x0 /usr/local/Caskroom/gcc-arm-embedded/9-2019-q4-major/gcc-arm-none-eabi-9-2019-q4-major/bin/../lib/gcc/arm-none-eabi/9.2.1/../../../../arm-none-eabi/lib/thumb/v7e-m+fp/hard/libc_nano.a(lib_a-nano-svfprintf.o)
 .text.__ssprint_r
                0x0000000000000000       0xf6 /usr/local/Caskroom/gcc-arm-embedded/9-2019-q4-major/gcc-arm-none-eabi-9-2019-q4-major/bin/../lib/gcc/arm-none-eabi/9.2.1/../../../../arm-none-eabi/lib/thumb/v7e-m+fp/hard/libc_nano.a(lib_a-nano-svfprintf.o)
 .text          0x0000000000000000        0x0 /usr/local/Caskroom/gcc-arm-embedded/9-2019-q4-major/gcc-arm-none-eabi-9-2019-q4-major/bin/../lib/gcc/arm-none-eabi/9.2.1/../../../../arm-none-eabi/lib/thumb/v7e-m+fp/hard/libc_nano.a(lib_a-nano-vfprintf_i.o)
 .data          0x0000000000000000        0x0 /usr/local/Caskroom/gcc-arm-embedded/9-2019-q4-major/gcc-arm-none-eabi-9-2019-q4-major/bin/../lib/gcc/arm-none-eabi/9.2.1/../../../../arm-none-eabi/lib/thumb/v7e-m+fp/hard/libc_nano.a(lib_a-nano-vfprintf_i.o)
 .bss           0x0000000000000000        0x0 /usr/local/Caskroom/gcc-arm-embedded/9-2019-q4-major/gcc-arm-none-eabi-9-2019-q4-major/bin/../lib/gcc/arm-none-eabi/9.2.1/../../../../arm-none-eabi/lib/thumb/v7e-m+fp/hard/libc_nano.a(lib_a-nano-vfprintf_i.o)
 .data          0x0000000000000000        0x0 /usr/local/Caskroom/gcc-arm-embedded/9-2019-q4-major/gcc-arm-none-eabi-9-2019-q4-major/bin/../lib/gcc/arm-none-eabi/9.2.1/../../../../arm-none-eabi/lib/thumb/v7e-m+fp/hard/libc_nano.a(lib_a-memchr.o)
 .bss           0x0000000000000000        0x0 /usr/local/Caskroom/gcc-arm-embedded/9-2019-q4-major/gcc-arm-none-eabi-9-2019-q4-major/bin/../lib/gcc/arm-none-eabi/9.2.1/../../../../arm-none-eabi/lib/thumb/v7e-m+fp/hard/libc_nano.a(lib_a-memchr.o)
 .text          0x0000000000000000        0x0 /usr/local/Caskroom/gcc-arm-embedded/9-2019-q4-major/gcc-arm-none-eabi-9-2019-q4-major/bin/../lib/gcc/arm-none-eabi/9.2.1/../../../../arm-none-eabi/lib/thumb/v7e-m+fp/hard/libc_nano.a(lib_a-nano-freer.o)
 .data          0x0000000000000000        0x0 /usr/local/Caskroom/gcc-arm-embedded/9-2019-q4-major/gcc-arm-none-eabi-9-2019-q4-major/bin/../lib/gcc/arm-none-eabi/9.2.1/../../../../arm-none-eabi/lib/thumb/v7e-m+fp/hard/libc_nano.a(lib_a-nano-freer.o)
 .bss           0x0000000000000000        0x0 /usr/local/Caskroom/gcc-arm-embedded/9-2019-q4-major/gcc-arm-none-eabi-9-2019-q4-major/bin/../lib/gcc/arm-none-eabi/9.2.1/../../../../arm-none-eabi/lib/thumb/v7e-m+fp/hard/libc_nano.a(lib_a-nano-freer.o)
 .text          0x0000000000000000        0x0 /usr/local/Caskroom/gcc-arm-embedded/9-2019-q4-major/gcc-arm-none-eabi-9-2019-q4-major/bin/../lib/gcc/arm-none-eabi/9.2.1/../../../../arm-none-eabi/lib/thumb/v7e-m+fp/hard/libc_nano.a(lib_a-nano-mallocr.o)
 .data          0x0000000000000000        0x0 /usr/local/Caskroom/gcc-arm-embedded/9-2019-q4-major/gcc-arm-none-eabi-9-2019-q4-major/bin/../lib/gcc/arm-none-eabi/9.2.1/../../../../arm-none-eabi/lib/thumb/v7e-m+fp/hard/libc_nano.a(lib_a-nano-mallocr.o)
 .bss           0x0000000000000000        0x0 /usr/local/Caskroom/gcc-arm-embedded/9-2019-q4-major/gcc-arm-none-eabi-9-2019-q4-major/bin/../lib/gcc/arm-none-eabi/9.2.1/../../../../arm-none-eabi/lib/thumb/v7e-m+fp/hard/libc_nano.a(lib_a-nano-mallocr.o)
 .text          0x0000000000000000        0x0 /usr/local/Caskroom/gcc-arm-embedded/9-2019-q4-major/gcc-arm-none-eabi-9-2019-q4-major/bin/../lib/gcc/arm-none-eabi/9.2.1/../../../../arm-none-eabi/lib/thumb/v7e-m+fp/hard/libc_nano.a(lib_a-nano-reallocr.o)
 .data          0x0000000000000000        0x0 /usr/local/Caskroom/gcc-arm-embedded/9-2019-q4-major/gcc-arm-none-eabi-9-2019-q4-major/bin/../lib/gcc/arm-none-eabi/9.2.1/../../../../arm-none-eabi/lib/thumb/v7e-m+fp/hard/libc_nano.a(lib_a-nano-reallocr.o)
 .bss           0x0000000000000000        0x0 /usr/local/Caskroom/gcc-arm-embedded/9-2019-q4-major/gcc-arm-none-eabi-9-2019-q4-major/bin/../lib/gcc/arm-none-eabi/9.2.1/../../../../arm-none-eabi/lib/thumb/v7e-m+fp/hard/libc_nano.a(lib_a-nano-reallocr.o)
 .text          0x0000000000000000        0x0 /usr/local/Caskroom/gcc-arm-embedded/9-2019-q4-major/gcc-arm-none-eabi-9-2019-q4-major/bin/../lib/gcc/arm-none-eabi/9.2.1/../../../../arm-none-eabi/lib/thumb/v7e-m+fp/hard/libc_nano.a(lib_a-sbrkr.o)
 .data          0x0000000000000000        0x0 /usr/local/Caskroom/gcc-arm-embedded/9-2019-q4-major/gcc-arm-none-eabi-9-2019-q4-major/bin/../lib/gcc/arm-none-eabi/9.2.1/../../../../arm-none-eabi/lib/thumb/v7e-m+fp/hard/libc_nano.a(lib_a-sbrkr.o)
 .bss           0x0000000000000000        0x0 /usr/local/Caskroom/gcc-arm-embedded/9-2019-q4-major/gcc-arm-none-eabi-9-2019-q4-major/bin/../lib/gcc/arm-none-eabi/9.2.1/../../../../arm-none-eabi/lib/thumb/v7e-m+fp/hard/libc_nano.a(lib_a-sbrkr.o)
 .text          0x0000000000000000        0x0 /usr/local/Caskroom/gcc-arm-embedded/9-2019-q4-major/gcc-arm-none-eabi-9-2019-q4-major/bin/../lib/gcc/arm-none-eabi/9.2.1/../../../../arm-none-eabi/lib/thumb/v7e-m+fp/hard/libc_nano.a(lib_a-mlock.o)
 .data          0x0000000000000000        0x0 /usr/local/Caskroom/gcc-arm-embedded/9-2019-q4-major/gcc-arm-none-eabi-9-2019-q4-major/bin/../lib/gcc/arm-none-eabi/9.2.1/../../../../arm-none-eabi/lib/thumb/v7e-m+fp/hard/libc_nano.a(lib_a-mlock.o)
 .bss           0x0000000000000000        0x0 /usr/local/Caskroom/gcc-arm-embedded/9-2019-q4-major/gcc-arm-none-eabi-9-2019-q4-major/bin/../lib/gcc/arm-none-eabi/9.2.1/../../../../arm-none-eabi/lib/thumb/v7e-m+fp/hard/libc_nano.a(lib_a-mlock.o)
 .text          0x0000000000000000        0x0 /usr/local/Caskroom/gcc-arm-embedded/9-2019-q4-major/gcc-arm-none-eabi-9-2019-q4-major/bin/../lib/gcc/arm-none-eabi/9.2.1/../../../../arm-none-eabi/lib/thumb/v7e-m+fp/hard/libc_nano.a(lib_a-nano-msizer.o)
 .data          0x0000000000000000        0x0 /usr/local/Caskroom/gcc-arm-embedded/9-2019-q4-major/gcc-arm-none-eabi-9-2019-q4-major/bin/../lib/gcc/arm-none-eabi/9.2.1/../../../../arm-none-eabi/lib/thumb/v7e-m+fp/hard/libc_nano.a(lib_a-nano-msizer.o)
 .bss           0x0000000000000000        0x0 /usr/local/Caskroom/gcc-arm-embedded/9-2019-q4-major/gcc-arm-none-eabi-9-2019-q4-major/bin/../lib/gcc/arm-none-eabi/9.2.1/../../../../arm-none-eabi/lib/thumb/v7e-m+fp/hard/libc_nano.a(lib_a-nano-msizer.o)
 .text          0x0000000000000000        0x0 /usr/local/Caskroom/gcc-arm-embedded/9-2019-q4-major/gcc-arm-none-eabi-9-2019-q4-major/bin/../lib/gcc/arm-none-eabi/9.2.1/../../../../arm-none-eabi/lib/thumb/v7e-m+fp/hard/libc_nano.a(lib_a-reent.o)
 .data          0x0000000000000000        0x0 /usr/local/Caskroom/gcc-arm-embedded/9-2019-q4-major/gcc-arm-none-eabi-9-2019-q4-major/bin/../lib/gcc/arm-none-eabi/9.2.1/../../../../arm-none-eabi/lib/thumb/v7e-m+fp/hard/libc_nano.a(lib_a-reent.o)
 .bss           0x0000000000000000        0x0 /usr/local/Caskroom/gcc-arm-embedded/9-2019-q4-major/gcc-arm-none-eabi-9-2019-q4-major/bin/../lib/gcc/arm-none-eabi/9.2.1/../../../../arm-none-eabi/lib/thumb/v7e-m+fp/hard/libc_nano.a(lib_a-reent.o)
 .text.cleanup_glue
                0x0000000000000000       0x1a /usr/local/Caskroom/gcc-arm-embedded/9-2019-q4-major/gcc-arm-none-eabi-9-2019-q4-major/bin/../lib/gcc/arm-none-eabi/9.2.1/../../../../arm-none-eabi/lib/thumb/v7e-m+fp/hard/libc_nano.a(lib_a-reent.o)
 .text._reclaim_reent
                0x0000000000000000       0xb8 /usr/local/Caskroom/gcc-arm-embedded/9-2019-q4-major/gcc-arm-none-eabi-9-2019-q4-major/bin/../lib/gcc/arm-none-eabi/9.2.1/../../../../arm-none-eabi/lib/thumb/v7e-m+fp/hard/libc_nano.a(lib_a-reent.o)
 .text          0x0000000000000000        0x0 /usr/local/Caskroom/gcc-arm-embedded/9-2019-q4-major/gcc-arm-none-eabi-9-2019-q4-major/bin/../lib/gcc/arm-none-eabi/9.2.1/../../../../arm-none-eabi/lib/thumb/v7e-m+fp/hard/libc_nano.a(lib_a-lock.o)
 .data          0x0000000000000000        0x0 /usr/local/Caskroom/gcc-arm-embedded/9-2019-q4-major/gcc-arm-none-eabi-9-2019-q4-major/bin/../lib/gcc/arm-none-eabi/9.2.1/../../../../arm-none-eabi/lib/thumb/v7e-m+fp/hard/libc_nano.a(lib_a-lock.o)
 .bss           0x0000000000000000        0x0 /usr/local/Caskroom/gcc-arm-embedded/9-2019-q4-major/gcc-arm-none-eabi-9-2019-q4-major/bin/../lib/gcc/arm-none-eabi/9.2.1/../../../../arm-none-eabi/lib/thumb/v7e-m+fp/hard/libc_nano.a(lib_a-lock.o)
 .text.__retarget_lock_init
                0x0000000000000000        0x2 /usr/local/Caskroom/gcc-arm-embedded/9-2019-q4-major/gcc-arm-none-eabi-9-2019-q4-major/bin/../lib/gcc/arm-none-eabi/9.2.1/../../../../arm-none-eabi/lib/thumb/v7e-m+fp/hard/libc_nano.a(lib_a-lock.o)
 .text.__retarget_lock_init_recursive
                0x0000000000000000        0x2 /usr/local/Caskroom/gcc-arm-embedded/9-2019-q4-major/gcc-arm-none-eabi-9-2019-q4-major/bin/../lib/gcc/arm-none-eabi/9.2.1/../../../../arm-none-eabi/lib/thumb/v7e-m+fp/hard/libc_nano.a(lib_a-lock.o)
 .text.__retarget_lock_close
                0x0000000000000000        0x2 /usr/local/Caskroom/gcc-arm-embedded/9-2019-q4-major/gcc-arm-none-eabi-9-2019-q4-major/bin/../lib/gcc/arm-none-eabi/9.2.1/../../../../arm-none-eabi/lib/thumb/v7e-m+fp/hard/libc_nano.a(lib_a-lock.o)
 .text.__retarget_lock_close_recursive
                0x0000000000000000        0x2 /usr/local/Caskroom/gcc-arm-embedded/9-2019-q4-major/gcc-arm-none-eabi-9-2019-q4-major/bin/../lib/gcc/arm-none-eabi/9.2.1/../../../../arm-none-eabi/lib/thumb/v7e-m+fp/hard/libc_nano.a(lib_a-lock.o)
 .text.__retarget_lock_acquire
                0x0000000000000000        0x2 /usr/local/Caskroom/gcc-arm-embedded/9-2019-q4-major/gcc-arm-none-eabi-9-2019-q4-major/bin/../lib/gcc/arm-none-eabi/9.2.1/../../../../arm-none-eabi/lib/thumb/v7e-m+fp/hard/libc_nano.a(lib_a-lock.o)
 .text.__retarget_lock_try_acquire
                0x0000000000000000        0x4 /usr/local/Caskroom/gcc-arm-embedded/9-2019-q4-major/gcc-arm-none-eabi-9-2019-q4-major/bin/../lib/gcc/arm-none-eabi/9.2.1/../../../../arm-none-eabi/lib/thumb/v7e-m+fp/hard/libc_nano.a(lib_a-lock.o)
 .text.__retarget_lock_try_acquire_recursive
                0x0000000000000000        0x4 /usr/local/Caskroom/gcc-arm-embedded/9-2019-q4-major/gcc-arm-none-eabi-9-2019-q4-major/bin/../lib/gcc/arm-none-eabi/9.2.1/../../../../arm-none-eabi/lib/thumb/v7e-m+fp/hard/libc_nano.a(lib_a-lock.o)
 .text.__retarget_lock_release
                0x0000000000000000        0x2 /usr/local/Caskroom/gcc-arm-embedded/9-2019-q4-major/gcc-arm-none-eabi-9-2019-q4-major/bin/../lib/gcc/arm-none-eabi/9.2.1/../../../../arm-none-eabi/lib/thumb/v7e-m+fp/hard/libc_nano.a(lib_a-lock.o)
 .text          0x0000000000000000        0x0 /usr/local/Caskroom/gcc-arm-embedded/9-2019-q4-major/gcc-arm-none-eabi-9-2019-q4-major/bin/../lib/gcc/arm-none-eabi/9.2.1/../../../../arm-none-eabi/lib/thumb/v7e-m+fp/hard/libnosys.a(sbrk.o)
 .data          0x0000000000000000        0x0 /usr/local/Caskroom/gcc-arm-embedded/9-2019-q4-major/gcc-arm-none-eabi-9-2019-q4-major/bin/../lib/gcc/arm-none-eabi/9.2.1/../../../../arm-none-eabi/lib/thumb/v7e-m+fp/hard/libnosys.a(sbrk.o)
 .bss           0x0000000000000000        0x0 /usr/local/Caskroom/gcc-arm-embedded/9-2019-q4-major/gcc-arm-none-eabi-9-2019-q4-major/bin/../lib/gcc/arm-none-eabi/9.2.1/../../../../arm-none-eabi/lib/thumb/v7e-m+fp/hard/libnosys.a(sbrk.o)
 .text          0x0000000000000000        0x0 /usr/local/Caskroom/gcc-arm-embedded/9-2019-q4-major/gcc-arm-none-eabi-9-2019-q4-major/bin/../lib/gcc/arm-none-eabi/9.2.1/../../../../arm-none-eabi/lib/thumb/v7e-m+fp/hard/libnosys.a(_exit.o)
 .data          0x0000000000000000        0x0 /usr/local/Caskroom/gcc-arm-embedded/9-2019-q4-major/gcc-arm-none-eabi-9-2019-q4-major/bin/../lib/gcc/arm-none-eabi/9.2.1/../../../../arm-none-eabi/lib/thumb/v7e-m+fp/hard/libnosys.a(_exit.o)
 .bss           0x0000000000000000        0x0 /usr/local/Caskroom/gcc-arm-embedded/9-2019-q4-major/gcc-arm-none-eabi-9-2019-q4-major/bin/../lib/gcc/arm-none-eabi/9.2.1/../../../../arm-none-eabi/lib/thumb/v7e-m+fp/hard/libnosys.a(_exit.o)
 .text._exit    0x0000000000000000        0x4 /usr/local/Caskroom/gcc-arm-embedded/9-2019-q4-major/gcc-arm-none-eabi-9-2019-q4-major/bin/../lib/gcc/arm-none-eabi/9.2.1/../../../../arm-none-eabi/lib/thumb/v7e-m+fp/hard/libnosys.a(_exit.o)
 .debug_frame   0x0000000000000000       0x20 /usr/local/Caskroom/gcc-arm-embedded/9-2019-q4-major/gcc-arm-none-eabi-9-2019-q4-major/bin/../lib/gcc/arm-none-eabi/9.2.1/../../../../arm-none-eabi/lib/thumb/v7e-m+fp/hard/libnosys.a(_exit.o)
 .ARM.attributes
                0x0000000000000000       0x34 /usr/local/Caskroom/gcc-arm-embedded/9-2019-q4-major/gcc-arm-none-eabi-9-2019-q4-major/bin/../lib/gcc/arm-none-eabi/9.2.1/../../../../arm-none-eabi/lib/thumb/v7e-m+fp/hard/libnosys.a(_exit.o)
 .data          0x0000000000000000        0x0 /usr/local/Caskroom/gcc-arm-embedded/9-2019-q4-major/gcc-arm-none-eabi-9-2019-q4-major/bin/../lib/gcc/arm-none-eabi/9.2.1/thumb/v7e-m+fp/hard/libgcc.a(_aeabi_uldivmod.o)
 .bss           0x0000000000000000        0x0 /usr/local/Caskroom/gcc-arm-embedded/9-2019-q4-major/gcc-arm-none-eabi-9-2019-q4-major/bin/../lib/gcc/arm-none-eabi/9.2.1/thumb/v7e-m+fp/hard/libgcc.a(_aeabi_uldivmod.o)
 .data          0x0000000000000000        0x0 /usr/local/Caskroom/gcc-arm-embedded/9-2019-q4-major/gcc-arm-none-eabi-9-2019-q4-major/bin/../lib/gcc/arm-none-eabi/9.2.1/thumb/v7e-m+fp/hard/libgcc.a(_udivmoddi4.o)
 .bss           0x0000000000000000        0x0 /usr/local/Caskroom/gcc-arm-embedded/9-2019-q4-major/gcc-arm-none-eabi-9-2019-q4-major/bin/../lib/gcc/arm-none-eabi/9.2.1/thumb/v7e-m+fp/hard/libgcc.a(_udivmoddi4.o)
 .ARM.extab     0x0000000000000000        0x0 /usr/local/Caskroom/gcc-arm-embedded/9-2019-q4-major/gcc-arm-none-eabi-9-2019-q4-major/bin/../lib/gcc/arm-none-eabi/9.2.1/thumb/v7e-m+fp/hard/libgcc.a(_udivmoddi4.o)
 .data          0x0000000000000000        0x0 /usr/local/Caskroom/gcc-arm-embedded/9-2019-q4-major/gcc-arm-none-eabi-9-2019-q4-major/bin/../lib/gcc/arm-none-eabi/9.2.1/thumb/v7e-m+fp/hard/libgcc.a(_dvmd_tls.o)
 .bss           0x0000000000000000        0x0 /usr/local/Caskroom/gcc-arm-embedded/9-2019-q4-major/gcc-arm-none-eabi-9-2019-q4-major/bin/../lib/gcc/arm-none-eabi/9.2.1/thumb/v7e-m+fp/hard/libgcc.a(_dvmd_tls.o)
 .text          0x0000000000000000        0x0 /usr/local/Caskroom/gcc-arm-embedded/9-2019-q4-major/gcc-arm-none-eabi-9-2019-q4-major/bin/../lib/gcc/arm-none-eabi/9.2.1/thumb/v7e-m+fp/hard/crtend.o
 .data          0x0000000000000000        0x0 /usr/local/Caskroom/gcc-arm-embedded/9-2019-q4-major/gcc-arm-none-eabi-9-2019-q4-major/bin/../lib/gcc/arm-none-eabi/9.2.1/thumb/v7e-m+fp/hard/crtend.o
 .bss           0x0000000000000000        0x0 /usr/local/Caskroom/gcc-arm-embedded/9-2019-q4-major/gcc-arm-none-eabi-9-2019-q4-major/bin/../lib/gcc/arm-none-eabi/9.2.1/thumb/v7e-m+fp/hard/crtend.o
 .eh_frame      0x0000000000000000        0x4 /usr/local/Caskroom/gcc-arm-embedded/9-2019-q4-major/gcc-arm-none-eabi-9-2019-q4-major/bin/../lib/gcc/arm-none-eabi/9.2.1/thumb/v7e-m+fp/hard/crtend.o
 .ARM.attributes
                0x0000000000000000       0x32 /usr/local/Caskroom/gcc-arm-embedded/9-2019-q4-major/gcc-arm-none-eabi-9-2019-q4-major/bin/../lib/gcc/arm-none-eabi/9.2.1/thumb/v7e-m+fp/hard/crtend.o
 .text          0x0000000000000000        0x0 /usr/local/Caskroom/gcc-arm-embedded/9-2019-q4-major/gcc-arm-none-eabi-9-2019-q4-major/bin/../lib/gcc/arm-none-eabi/9.2.1/thumb/v7e-m+fp/hard/crtn.o
 .data          0x0000000000000000        0x0 /usr/local/Caskroom/gcc-arm-embedded/9-2019-q4-major/gcc-arm-none-eabi-9-2019-q4-major/bin/../lib/gcc/arm-none-eabi/9.2.1/thumb/v7e-m+fp/hard/crtn.o
 .bss           0x0000000000000000        0x0 /usr/local/Caskroom/gcc-arm-embedded/9-2019-q4-major/gcc-arm-none-eabi-9-2019-q4-major/bin/../lib/gcc/arm-none-eabi/9.2.1/thumb/v7e-m+fp/hard/crtn.o

Memory Configuration

Name             Origin             Length             Attributes
FLASH            0x0000000008000000 0x0000000000100000 xr
RAM              0x0000000020000000 0x0000000000050000 xrw
*default*        0x0000000000000000 0xffffffffffffffff

Linker script and memory map

LOAD /usr/local/Caskroom/gcc-arm-embedded/9-2019-q4-major/gcc-arm-none-eabi-9-2019-q4-major/bin/../lib/gcc/arm-none-eabi/9.2.1/thumb/v7e-m+fp/hard/crti.o
LOAD /usr/local/Caskroom/gcc-arm-embedded/9-2019-q4-major/gcc-arm-none-eabi-9-2019-q4-major/bin/../lib/gcc/arm-none-eabi/9.2.1/thumb/v7e-m+fp/hard/crtbegin.o
LOAD /usr/local/Caskroom/gcc-arm-embedded/9-2019-q4-major/gcc-arm-none-eabi-9-2019-q4-major/bin/../lib/gcc/arm-none-eabi/9.2.1/../../../../arm-none-eabi/lib/thumb/v7e-m+fp/hard/crt0.o
LOAD build/main.o
LOAD build/freertos.o
LOAD build/stm32f7xx_it.o
LOAD build/stm32f7xx_hal_msp.o
LOAD build/stm32f7xx_nucleo_144.o
LOAD build/stm32f7xx_hal.o
LOAD build/stm32f7xx_hal_cortex.o
LOAD build/stm32f7xx_hal_rcc.o
LOAD build/stm32f7xx_hal_rcc_ex.o
LOAD build/stm32f7xx_hal_dma.o
LOAD build/stm32f7xx_hal_dma_ex.o
LOAD build/stm32f7xx_hal_rng.o
LOAD build/stm32f7xx_hal_tim.o
LOAD build/stm32f7xx_hal_tim_ex.o
LOAD build/stm32f7xx_hal_pwr.o
LOAD build/stm32f7xx_hal_pwr_ex.o
LOAD build/stm32f7xx_hal_uart.o
LOAD build/stm32f7xx_hal_uart_ex.o
LOAD build/stm32f7xx_hal_gpio.o
LOAD build/system_stm32f7xx.o
LOAD build/croutine.o
LOAD build/event_groups.o
LOAD build/list.o
LOAD build/queue.o
LOAD build/stream_buffer.o
LOAD build/tasks.o
LOAD build/timers.o
LOAD build/heap_4.o
LOAD build/port.o
LOAD build/cmsis_os2.o
LOAD build/logging.o
LOAD build/FreeRTOS_ARP.o
LOAD build/FreeRTOS_DHCP.o
LOAD build/FreeRTOS_DNS.o
LOAD build/FreeRTOS_IP.o
LOAD build/FreeRTOS_Sockets.o
LOAD build/FreeRTOS_Stream_Buffer.o
LOAD build/FreeRTOS_TCP_IP.o
LOAD build/FreeRTOS_TCP_WIN.o
LOAD build/FreeRTOS_UDP_IP.o
LOAD build/BufferAllocation_1.o
LOAD build/phyHandling.o
LOAD build/NetworkInterface.o
LOAD build/stm32fxx_hal_eth.o
LOAD build/startup_stm32f746xx.o
LOAD /usr/local/Caskroom/gcc-arm-embedded/9-2019-q4-major/gcc-arm-none-eabi-9-2019-q4-major/bin/../lib/gcc/arm-none-eabi/9.2.1/../../../../arm-none-eabi/lib/thumb/v7e-m+fp/hard/libc_nano.a
LOAD /usr/local/Caskroom/gcc-arm-embedded/9-2019-q4-major/gcc-arm-none-eabi-9-2019-q4-major/bin/../lib/gcc/arm-none-eabi/9.2.1/../../../../arm-none-eabi/lib/thumb/v7e-m+fp/hard/libm.a
LOAD /usr/local/Caskroom/gcc-arm-embedded/9-2019-q4-major/gcc-arm-none-eabi-9-2019-q4-major/bin/../lib/gcc/arm-none-eabi/9.2.1/../../../../arm-none-eabi/lib/thumb/v7e-m+fp/hard/libnosys.a
START GROUP
LOAD /usr/local/Caskroom/gcc-arm-embedded/9-2019-q4-major/gcc-arm-none-eabi-9-2019-q4-major/bin/../lib/gcc/arm-none-eabi/9.2.1/thumb/v7e-m+fp/hard/libgcc.a
LOAD /usr/local/Caskroom/gcc-arm-embedded/9-2019-q4-major/gcc-arm-none-eabi-9-2019-q4-major/bin/../lib/gcc/arm-none-eabi/9.2.1/../../../../arm-none-eabi/lib/thumb/v7e-m+fp/hard/libc_nano.a
END GROUP
START GROUP
LOAD /usr/local/Caskroom/gcc-arm-embedded/9-2019-q4-major/gcc-arm-none-eabi-9-2019-q4-major/bin/../lib/gcc/arm-none-eabi/9.2.1/thumb/v7e-m+fp/hard/libgcc.a
LOAD /usr/local/Caskroom/gcc-arm-embedded/9-2019-q4-major/gcc-arm-none-eabi-9-2019-q4-major/bin/../lib/gcc/arm-none-eabi/9.2.1/../../../../arm-none-eabi/lib/thumb/v7e-m+fp/hard/libc_nano.a
END GROUP
LOAD /usr/local/Caskroom/gcc-arm-embedded/9-2019-q4-major/gcc-arm-none-eabi-9-2019-q4-major/bin/../lib/gcc/arm-none-eabi/9.2.1/thumb/v7e-m+fp/hard/crtend.o
LOAD /usr/local/Caskroom/gcc-arm-embedded/9-2019-q4-major/gcc-arm-none-eabi-9-2019-q4-major/bin/../lib/gcc/arm-none-eabi/9.2.1/thumb/v7e-m+fp/hard/crtn.o
                0x0000000020050000                _estack = 0x20050000
                0x0000000000000200                _Min_Heap_Size = 0x200
                0x0000000000000400                _Min_Stack_Size = 0x400

.isr_vector     0x0000000008000000      0x1c8
                0x0000000008000000                . = ALIGN (0x4)
 *(.isr_vector)
 .isr_vector    0x0000000008000000      0x1c8 build/startup_stm32f746xx.o
                0x0000000008000000                g_pfnVectors
                0x00000000080001c8                . = ALIGN (0x4)

.text           0x00000000080001d0     0xb580
                0x00000000080001d0                . = ALIGN (0x4)
 *(.text)
 .text          0x00000000080001d0       0x40 /usr/local/Caskroom/gcc-arm-embedded/9-2019-q4-major/gcc-arm-none-eabi-9-2019-q4-major/bin/../lib/gcc/arm-none-eabi/9.2.1/thumb/v7e-m+fp/hard/crtbegin.o
 .text          0x0000000008000210       0xa0 /usr/local/Caskroom/gcc-arm-embedded/9-2019-q4-major/gcc-arm-none-eabi-9-2019-q4-major/bin/../lib/gcc/arm-none-eabi/9.2.1/../../../../arm-none-eabi/lib/thumb/v7e-m+fp/hard/libc_nano.a(lib_a-memchr.o)
                0x0000000008000210                memchr
 .text          0x00000000080002b0       0x30 /usr/local/Caskroom/gcc-arm-embedded/9-2019-q4-major/gcc-arm-none-eabi-9-2019-q4-major/bin/../lib/gcc/arm-none-eabi/9.2.1/thumb/v7e-m+fp/hard/libgcc.a(_aeabi_uldivmod.o)
                0x00000000080002b0                __aeabi_uldivmod
 .text          0x00000000080002e0      0x2c4 /usr/local/Caskroom/gcc-arm-embedded/9-2019-q4-major/gcc-arm-none-eabi-9-2019-q4-major/bin/../lib/gcc/arm-none-eabi/9.2.1/thumb/v7e-m+fp/hard/libgcc.a(_udivmoddi4.o)
                0x00000000080002e0                __udivmoddi4
 .text          0x00000000080005a4        0x4 /usr/local/Caskroom/gcc-arm-embedded/9-2019-q4-major/gcc-arm-none-eabi-9-2019-q4-major/bin/../lib/gcc/arm-none-eabi/9.2.1/thumb/v7e-m+fp/hard/libgcc.a(_dvmd_tls.o)
                0x00000000080005a4                __aeabi_ldiv0
                0x00000000080005a4                __aeabi_idiv0
 *(.text*)
 .text.DebugMode_Config
                0x00000000080005a8       0x90 build/main.o
 .text.prvStartupTask
                0x0000000008000638       0x24 build/main.o
 .text.Error_Handler
                0x000000000800065c        0xc build/main.o
                0x000000000800065c                Error_Handler
 .text.SystemClock_Config
                0x0000000008000668       0xb4 build/main.o
 .text.main     0x000000000800071c      0x140 build/main.o
                0x000000000800071c                main
 .text.configureTimerForRunTimeStats
                0x000000000800085c       0x3c build/freertos.o
                0x000000000800085c                configureTimerForRunTimeStats
 .text.getRunTimeCounterValue
                0x0000000008000898        0xc build/freertos.o
                0x0000000008000898                getRunTimeCounterValue
 .text.vApplicationStackOverflowHook
                0x00000000080008a4       0x10 build/freertos.o
                0x00000000080008a4                vApplicationStackOverflowHook
 .text.vApplicationIPNetworkEventHook
                0x00000000080008b4       0x84 build/freertos.o
                0x00000000080008b4                vApplicationIPNetworkEventHook
 .text.ulApplicationGetNextSequenceNumber
                0x0000000008000938       0x10 build/freertos.o
                0x0000000008000938                ulApplicationGetNextSequenceNumber
 .text.xApplicationGetRandomNumber
                0x0000000008000948       0x24 build/freertos.o
                0x0000000008000948                xApplicationGetRandomNumber
 .text.vApplicationPingReplyHook
                0x000000000800096c       0x10 build/freertos.o
                0x000000000800096c                vApplicationPingReplyHook
 .text.NMI_Handler
                0x000000000800097c        0x2 build/stm32f7xx_it.o
                0x000000000800097c                NMI_Handler
 .text.HardFault_Handler
                0x000000000800097e        0x2 build/stm32f7xx_it.o
                0x000000000800097e                HardFault_Handler
 .text.MemManage_Handler
                0x0000000008000980        0x2 build/stm32f7xx_it.o
                0x0000000008000980                MemManage_Handler
 .text.BusFault_Handler
                0x0000000008000982        0x2 build/stm32f7xx_it.o
                0x0000000008000982                BusFault_Handler
 .text.UsageFault_Handler
                0x0000000008000984        0x2 build/stm32f7xx_it.o
                0x0000000008000984                UsageFault_Handler
 .text.DebugMon_Handler
                0x0000000008000986        0x2 build/stm32f7xx_it.o
                0x0000000008000986                DebugMon_Handler
 .text.SysTick_Handler
                0x0000000008000988       0x16 build/stm32f7xx_it.o
                0x0000000008000988                SysTick_Handler
 *fill*         0x000000000800099e        0x2 
 .text.TIM8_UP_TIM13_IRQHandler
                0x00000000080009a0       0x1c build/stm32f7xx_it.o
                0x00000000080009a0                TIM8_UP_TIM13_IRQHandler
 .text.HAL_MspInit
                0x00000000080009bc       0x40 build/stm32f7xx_hal_msp.o
                0x00000000080009bc                HAL_MspInit
 .text.HAL_TIM_Base_MspInit
                0x00000000080009fc       0x40 build/stm32f7xx_hal_msp.o
                0x00000000080009fc                HAL_TIM_Base_MspInit
 .text.HAL_UART_MspInit
                0x0000000008000a3c       0xa8 build/stm32f7xx_hal_msp.o
                0x0000000008000a3c                HAL_UART_MspInit
 .text.HAL_RNG_MspInit
                0x0000000008000ae4       0x2c build/stm32f7xx_hal_msp.o
                0x0000000008000ae4                HAL_RNG_MspInit
 .text.HAL_ETH_MspInit
                0x0000000008000b10      0x1b8 build/stm32f7xx_hal_msp.o
                0x0000000008000b10                HAL_ETH_MspInit
 .text.BSP_LED_Init
                0x0000000008000cc8       0x70 build/stm32f7xx_nucleo_144.o
                0x0000000008000cc8                BSP_LED_Init
 .text.BSP_LED_On
                0x0000000008000d38       0x20 build/stm32f7xx_nucleo_144.o
                0x0000000008000d38                BSP_LED_On
 .text.BSP_LED_Off
                0x0000000008000d58       0x20 build/stm32f7xx_nucleo_144.o
                0x0000000008000d58                BSP_LED_Off
 .text.BSP_LED_Toggle
                0x0000000008000d78       0x1c build/stm32f7xx_nucleo_144.o
                0x0000000008000d78                BSP_LED_Toggle
 .text.HAL_InitTick
                0x0000000008000d94       0x4c build/stm32f7xx_hal.o
                0x0000000008000d94                HAL_InitTick
 .text.HAL_Init
                0x0000000008000de0       0x2c build/stm32f7xx_hal.o
                0x0000000008000de0                HAL_Init
 .text.HAL_IncTick
                0x0000000008000e0c       0x18 build/stm32f7xx_hal.o
                0x0000000008000e0c                HAL_IncTick
 .text.HAL_GetTick
                0x0000000008000e24        0xc build/stm32f7xx_hal.o
                0x0000000008000e24                HAL_GetTick
 .text.HAL_NVIC_SetPriorityGrouping
                0x0000000008000e30       0x24 build/stm32f7xx_hal_cortex.o
                0x0000000008000e30                HAL_NVIC_SetPriorityGrouping
 .text.HAL_NVIC_SetPriority
                0x0000000008000e54       0x64 build/stm32f7xx_hal_cortex.o
                0x0000000008000e54                HAL_NVIC_SetPriority
 .text.HAL_NVIC_EnableIRQ
                0x0000000008000eb8       0x1c build/stm32f7xx_hal_cortex.o
                0x0000000008000eb8                HAL_NVIC_EnableIRQ
 .text.HAL_SYSTICK_Config
                0x0000000008000ed4       0x2c build/stm32f7xx_hal_cortex.o
                0x0000000008000ed4                HAL_SYSTICK_Config
 .text.HAL_RCC_OscConfig
                0x0000000008000f00      0x434 build/stm32f7xx_hal_rcc.o
                0x0000000008000f00                HAL_RCC_OscConfig
 .text.HAL_RCC_GetSysClockFreq
                0x0000000008001334       0xcc build/stm32f7xx_hal_rcc.o
                0x0000000008001334                HAL_RCC_GetSysClockFreq
 .text.HAL_RCC_ClockConfig
                0x0000000008001400      0x16c build/stm32f7xx_hal_rcc.o
                0x0000000008001400                HAL_RCC_ClockConfig
 .text.HAL_RCC_GetHCLKFreq
                0x000000000800156c        0xc build/stm32f7xx_hal_rcc.o
                0x000000000800156c                HAL_RCC_GetHCLKFreq
 .text.HAL_RCC_GetPCLK1Freq
                0x0000000008001578       0x20 build/stm32f7xx_hal_rcc.o
                0x0000000008001578                HAL_RCC_GetPCLK1Freq
 .text.HAL_RCC_GetPCLK2Freq
                0x0000000008001598       0x20 build/stm32f7xx_hal_rcc.o
                0x0000000008001598                HAL_RCC_GetPCLK2Freq
 .text.HAL_RCCEx_PeriphCLKConfig
                0x00000000080015b8      0x5a8 build/stm32f7xx_hal_rcc_ex.o
                0x00000000080015b8                HAL_RCCEx_PeriphCLKConfig
 .text.HAL_RNG_Init
                0x0000000008001b60       0x2e build/stm32f7xx_hal_rng.o
                0x0000000008001b60                HAL_RNG_Init
 .text.HAL_RNG_GenerateRandomNumber
                0x0000000008001b8e       0x64 build/stm32f7xx_hal_rng.o
                0x0000000008001b8e                HAL_RNG_GenerateRandomNumber
 .text.HAL_RNG_GetRandomNumber
                0x0000000008001bf2       0x16 build/stm32f7xx_hal_rng.o
                0x0000000008001bf2                HAL_RNG_GetRandomNumber
 .text.HAL_TIM_Base_Start_IT
                0x0000000008001c08       0x90 build/stm32f7xx_hal_tim.o
                0x0000000008001c08                HAL_TIM_Base_Start_IT
 .text.HAL_TIM_PeriodElapsedCallback
                0x0000000008001c98        0x2 build/stm32f7xx_hal_tim.o
                0x0000000008001c98                HAL_TIM_PeriodElapsedCallback
 .text.HAL_TIM_OC_DelayElapsedCallback
                0x0000000008001c9a        0x2 build/stm32f7xx_hal_tim.o
                0x0000000008001c9a                HAL_TIM_OC_DelayElapsedCallback
 .text.HAL_TIM_IC_CaptureCallback
                0x0000000008001c9c        0x2 build/stm32f7xx_hal_tim.o
                0x0000000008001c9c                HAL_TIM_IC_CaptureCallback
 .text.HAL_TIM_PWM_PulseFinishedCallback
                0x0000000008001c9e        0x2 build/stm32f7xx_hal_tim.o
                0x0000000008001c9e                HAL_TIM_PWM_PulseFinishedCallback
 .text.HAL_TIM_TriggerCallback
                0x0000000008001ca0        0x2 build/stm32f7xx_hal_tim.o
                0x0000000008001ca0                HAL_TIM_TriggerCallback
 .text.HAL_TIM_IRQHandler
                0x0000000008001ca2      0x19a build/stm32f7xx_hal_tim.o
                0x0000000008001ca2                HAL_TIM_IRQHandler
 .text.TIM_Base_SetConfig
                0x0000000008001e3c      0x10c build/stm32f7xx_hal_tim.o
                0x0000000008001e3c                TIM_Base_SetConfig
 .text.HAL_TIM_Base_Init
                0x0000000008001f48       0x60 build/stm32f7xx_hal_tim.o
                0x0000000008001f48                HAL_TIM_Base_Init
 .text.HAL_TIMEx_CommutCallback
                0x0000000008001fa8        0x2 build/stm32f7xx_hal_tim_ex.o
                0x0000000008001fa8                HAL_TIMEx_CommutCallback
 .text.HAL_TIMEx_BreakCallback
                0x0000000008001faa        0x2 build/stm32f7xx_hal_tim_ex.o
                0x0000000008001faa                HAL_TIMEx_BreakCallback
 .text.HAL_TIMEx_Break2Callback
                0x0000000008001fac        0x2 build/stm32f7xx_hal_tim_ex.o
                0x0000000008001fac                HAL_TIMEx_Break2Callback
 *fill*         0x0000000008001fae        0x2 
 .text.HAL_PWR_EnableBkUpAccess
                0x0000000008001fb0       0x10 build/stm32f7xx_hal_pwr.o
                0x0000000008001fb0                HAL_PWR_EnableBkUpAccess
 .text.HAL_PWREx_EnableOverDrive
                0x0000000008001fc0       0x7c build/stm32f7xx_hal_pwr_ex.o
                0x0000000008001fc0                HAL_PWREx_EnableOverDrive
 .text.UART_SetConfig
                0x000000000800203c      0x330 build/stm32f7xx_hal_uart.o
                0x000000000800203c                UART_SetConfig
 .text.UART_AdvFeatureConfig
                0x000000000800236c       0xca build/stm32f7xx_hal_uart.o
                0x000000000800236c                UART_AdvFeatureConfig
 .text.UART_WaitOnFlagUntilTimeout
                0x0000000008002436       0xa4 build/stm32f7xx_hal_uart.o
                0x0000000008002436                UART_WaitOnFlagUntilTimeout
 .text.HAL_UART_Transmit
                0x00000000080024da       0xdc build/stm32f7xx_hal_uart.o
                0x00000000080024da                HAL_UART_Transmit
 .text.UART_CheckIdleState
                0x00000000080025b6       0x48 build/stm32f7xx_hal_uart.o
                0x00000000080025b6                UART_CheckIdleState
 .text.HAL_UART_Init
                0x00000000080025fe       0x62 build/stm32f7xx_hal_uart.o
                0x00000000080025fe                HAL_UART_Init
 .text.HAL_GPIO_Init
                0x0000000008002660      0x1e0 build/stm32f7xx_hal_gpio.o
                0x0000000008002660                HAL_GPIO_Init
 .text.HAL_GPIO_WritePin
                0x0000000008002840        0xc build/stm32f7xx_hal_gpio.o
                0x0000000008002840                HAL_GPIO_WritePin
 .text.HAL_GPIO_TogglePin
                0x000000000800284c       0x12 build/stm32f7xx_hal_gpio.o
                0x000000000800284c                HAL_GPIO_TogglePin
 *fill*         0x000000000800285e        0x2 
 .text.SystemInit
                0x0000000008002860       0x14 build/system_stm32f7xx.o
                0x0000000008002860                SystemInit
 .text.prvTestWaitCondition
                0x0000000008002874       0x1c build/event_groups.o
 .text.xEventGroupCreate
                0x0000000008002890       0x1c build/event_groups.o
                0x0000000008002890                xEventGroupCreate
 .text.xEventGroupWaitBits
                0x00000000080028ac      0x11c build/event_groups.o
                0x00000000080028ac                xEventGroupWaitBits
 .text.xEventGroupClearBits
                0x00000000080029c8       0x4e build/event_groups.o
                0x00000000080029c8                xEventGroupClearBits
 .text.xEventGroupSetBits
                0x0000000008002a16       0x94 build/event_groups.o
                0x0000000008002a16                xEventGroupSetBits
 .text.vEventGroupDelete
                0x0000000008002aaa       0x60 build/event_groups.o
                0x0000000008002aaa                vEventGroupDelete
 .text.vListInitialise
                0x0000000008002b0a       0x16 build/list.o
                0x0000000008002b0a                vListInitialise
 .text.vListInitialiseItem
                0x0000000008002b20        0x6 build/list.o
                0x0000000008002b20                vListInitialiseItem
 .text.vListInsertEnd
                0x0000000008002b26       0x16 build/list.o
                0x0000000008002b26                vListInsertEnd
 .text.vListInsert
                0x0000000008002b3c       0x32 build/list.o
                0x0000000008002b3c                vListInsert
 .text.uxListRemove
                0x0000000008002b6e       0x26 build/list.o
                0x0000000008002b6e                uxListRemove
 .text.prvGetDisinheritPriorityAfterTimeout
                0x0000000008002b94       0x10 build/queue.o
 .text.prvIsQueueFull
                0x0000000008002ba4       0x1e build/queue.o
 .text.prvIsQueueEmpty
                0x0000000008002bc2       0x1a build/queue.o
 .text.prvCopyDataToQueue
                0x0000000008002bdc       0x76 build/queue.o
 .text.prvCopyDataFromQueue
                0x0000000008002c52       0x24 build/queue.o
 .text.prvUnlockQueue
                0x0000000008002c76       0x6e build/queue.o
 .text.xQueueGenericReset
                0x0000000008002ce4       0xb4 build/queue.o
                0x0000000008002ce4                xQueueGenericReset
 .text.prvInitialiseNewQueue
                0x0000000008002d98       0x22 build/queue.o
 .text.xQueueGenericCreateStatic
                0x0000000008002dba       0x8a build/queue.o
                0x0000000008002dba                xQueueGenericCreateStatic
 .text.xQueueGenericCreate
                0x0000000008002e44       0x60 build/queue.o
                0x0000000008002e44                xQueueGenericCreate
 .text.xQueueCreateCountingSemaphoreStatic
                0x0000000008002ea4       0x46 build/queue.o
                0x0000000008002ea4                xQueueCreateCountingSemaphoreStatic
 .text.xQueueCreateCountingSemaphore
                0x0000000008002eea       0x3c build/queue.o
                0x0000000008002eea                xQueueCreateCountingSemaphore
 *fill*         0x0000000008002f26        0x2 
 .text.xQueueGenericSend
                0x0000000008002f28      0x190 build/queue.o
                0x0000000008002f28                xQueueGenericSend
 .text.xQueueGenericSendFromISR
                0x00000000080030b8       0xfa build/queue.o
                0x00000000080030b8                xQueueGenericSendFromISR
 *fill*         0x00000000080031b2        0x2 
 .text.xQueueReceive
                0x00000000080031b4      0x168 build/queue.o
                0x00000000080031b4                xQueueReceive
 .text.xQueueSemaphoreTake
                0x000000000800331c      0x1b4 build/queue.o
                0x000000000800331c                xQueueSemaphoreTake
 .text.xQueueReceiveFromISR
                0x00000000080034d0       0xd2 build/queue.o
                0x00000000080034d0                xQueueReceiveFromISR
 .text.uxQueueMessagesWaiting
                0x00000000080035a2       0x2a build/queue.o
                0x00000000080035a2                uxQueueMessagesWaiting
 .text.vQueueAddToRegistry
                0x00000000080035cc       0x64 build/queue.o
                0x00000000080035cc                vQueueAddToRegistry
 .text.vQueueUnregisterQueue
                0x0000000008003630       0x48 build/queue.o
                0x0000000008003630                vQueueUnregisterQueue
 .text.vQueueDelete
                0x0000000008003678       0x30 build/queue.o
                0x0000000008003678                vQueueDelete
 .text.vQueueWaitForMessageRestricted
                0x00000000080036a8       0x52 build/queue.o
                0x00000000080036a8                vQueueWaitForMessageRestricted
 *fill*         0x00000000080036fa        0x2 
 .text.prvResetNextTaskUnblockTime
                0x00000000080036fc       0x28 build/tasks.o
 .text.prvInitialiseNewTask
                0x0000000008003724       0xc2 build/tasks.o
 *fill*         0x00000000080037e6        0x2 
 .text.prvInitialiseTaskLists
                0x00000000080037e8       0x68 build/tasks.o
 .text.prvAddNewTaskToReadyList
                0x0000000008003850       0xc8 build/tasks.o
 .text.prvDeleteTCB
                0x0000000008003918       0x3c build/tasks.o
 .text.prvCheckTasksWaitingTermination
                0x0000000008003954       0x4c build/tasks.o
 .text.prvIdleTask
                0x00000000080039a0       0x28 build/tasks.o
 .text.prvAddCurrentTaskToDelayedList
                0x00000000080039c8       0xa0 build/tasks.o
 .text.xTaskCreateStatic
                0x0000000008003a68       0x80 build/tasks.o
                0x0000000008003a68                xTaskCreateStatic
 .text.xTaskCreate
                0x0000000008003ae8       0x68 build/tasks.o
                0x0000000008003ae8                xTaskCreate
 .text.vTaskStartScheduler
                0x0000000008003b50       0xa8 build/tasks.o
                0x0000000008003b50                vTaskStartScheduler
 .text.vTaskSuspendAll
                0x0000000008003bf8       0x10 build/tasks.o
                0x0000000008003bf8                vTaskSuspendAll
 .text.xTaskGetTickCount
                0x0000000008003c08        0xc build/tasks.o
                0x0000000008003c08                xTaskGetTickCount
 .text.xTaskIncrementTick
                0x0000000008003c14      0x178 build/tasks.o
                0x0000000008003c14                xTaskIncrementTick
 .text.xTaskResumeAll
                0x0000000008003d8c      0x150 build/tasks.o
                0x0000000008003d8c                xTaskResumeAll
 .text.vTaskDelay
                0x0000000008003edc       0x50 build/tasks.o
                0x0000000008003edc                vTaskDelay
 .text.vTaskSwitchContext
                0x0000000008003f2c       0xe8 build/tasks.o
                0x0000000008003f2c                vTaskSwitchContext
 .text.vTaskPlaceOnEventList
                0x0000000008004014       0x34 build/tasks.o
                0x0000000008004014                vTaskPlaceOnEventList
 .text.vTaskPlaceOnUnorderedEventList
                0x0000000008004048       0x78 build/tasks.o
                0x0000000008004048                vTaskPlaceOnUnorderedEventList
 .text.vTaskPlaceOnEventListRestricted
                0x00000000080040c0       0x58 build/tasks.o
                0x00000000080040c0                vTaskPlaceOnEventListRestricted
 .text.xTaskRemoveFromEventList
                0x0000000008004118       0xf8 build/tasks.o
                0x0000000008004118                xTaskRemoveFromEventList
 .text.vTaskRemoveFromUnorderedEventList
                0x0000000008004210       0xf0 build/tasks.o
                0x0000000008004210                vTaskRemoveFromUnorderedEventList
 .text.vTaskSetTimeOutState
                0x0000000008004300       0x3c build/tasks.o
                0x0000000008004300                vTaskSetTimeOutState
 .text.vTaskInternalSetTimeOutState
                0x000000000800433c       0x18 build/tasks.o
                0x000000000800433c                vTaskInternalSetTimeOutState
 .text.xTaskCheckForTimeOut
                0x0000000008004354       0x90 build/tasks.o
                0x0000000008004354                xTaskCheckForTimeOut
 .text.vTaskMissedYield
                0x00000000080043e4        0xc build/tasks.o
                0x00000000080043e4                vTaskMissedYield
 .text.xTaskGetCurrentTaskHandle
                0x00000000080043f0        0xc build/tasks.o
                0x00000000080043f0                xTaskGetCurrentTaskHandle
 .text.xTaskGetSchedulerState
                0x00000000080043fc       0x20 build/tasks.o
                0x00000000080043fc                xTaskGetSchedulerState
 .text.xTaskPriorityInherit
                0x000000000800441c       0xb0 build/tasks.o
                0x000000000800441c                xTaskPriorityInherit
 .text.xTaskPriorityDisinherit
                0x00000000080044cc       0xb4 build/tasks.o
                0x00000000080044cc                xTaskPriorityDisinherit
 .text.vTaskPriorityDisinheritAfterTimeout
                0x0000000008004580       0xc4 build/tasks.o
                0x0000000008004580                vTaskPriorityDisinheritAfterTimeout
 .text.uxTaskResetEventItemValue
                0x0000000008004644       0x18 build/tasks.o
                0x0000000008004644                uxTaskResetEventItemValue
 .text.pvTaskIncrementMutexHeldCount
                0x000000000800465c       0x1c build/tasks.o
                0x000000000800465c                pvTaskIncrementMutexHeldCount
 .text.ulTaskGenericNotifyTake
                0x0000000008004678       0xb0 build/tasks.o
                0x0000000008004678                ulTaskGenericNotifyTake
 .text.vTaskGenericNotifyGiveFromISR
                0x0000000008004728      0x148 build/tasks.o
                0x0000000008004728                vTaskGenericNotifyGiveFromISR
 .text.prvGetNextExpireTime
                0x0000000008004870       0x20 build/timers.o
 .text.prvInsertTimerInActiveList
                0x0000000008004890       0x50 build/timers.o
 .text.prvReloadTimer
                0x00000000080048e0       0x26 build/timers.o
 *fill*         0x0000000008004906        0x2 
 .text.prvProcessExpiredTimer
                0x0000000008004908       0x40 build/timers.o
 .text.prvSwitchTimerLists
                0x0000000008004948       0x2c build/timers.o
 .text.prvSampleTimeNow
                0x0000000008004974       0x2c build/timers.o
 .text.prvProcessTimerOrBlockTask
                0x00000000080049a0       0x80 build/timers.o
 .text.prvProcessReceivedCommands
                0x0000000008004a20      0x108 build/timers.o
 .text.prvTimerTask
                0x0000000008004b28       0x16 build/timers.o
 *fill*         0x0000000008004b3e        0x2 
 .text.prvCheckForValidListAndQueue
                0x0000000008004b40       0x70 build/timers.o
 .text.xTimerCreateTimerTask
                0x0000000008004bb0       0x68 build/timers.o
                0x0000000008004bb0                xTimerCreateTimerTask
 .text.xTimerPendFunctionCall
                0x0000000008004c18       0x44 build/timers.o
                0x0000000008004c18                xTimerPendFunctionCall
 .text.prvHeapInit
                0x0000000008004c5c       0x64 build/heap_4.o
 .text.prvInsertBlockIntoFreeList
                0x0000000008004cc0       0x58 build/heap_4.o
 .text.pvPortMalloc
                0x0000000008004d18      0x118 build/heap_4.o
                0x0000000008004d18                pvPortMalloc
 .text.vPortFree
                0x0000000008004e30       0x84 build/heap_4.o
                0x0000000008004e30                vPortFree
 .text.xPortGetFreeHeapSize
                0x0000000008004eb4        0xc build/heap_4.o
                0x0000000008004eb4                xPortGetFreeHeapSize
 .text.xPortGetMinimumEverFreeHeapSize
                0x0000000008004ec0        0xc build/heap_4.o
                0x0000000008004ec0                xPortGetMinimumEverFreeHeapSize
 .text.prvTaskExitError
                0x0000000008004ecc       0x48 build/port.o
 .text.prvPortStartFirstTask
                0x0000000008004f14       0x28 build/port.o
 .text.vPortEnableVFP
                0x0000000008004f3c       0x14 build/port.o
 .text.pxPortInitialiseStack
                0x0000000008004f50       0x2c build/port.o
                0x0000000008004f50                pxPortInitialiseStack
 *fill*         0x0000000008004f7c        0x4 
 .text.SVC_Handler
                0x0000000008004f80       0x24 build/port.o
                0x0000000008004f80                SVC_Handler
 .text.vPortEnterCritical
                0x0000000008004fa4       0x4c build/port.o
                0x0000000008004fa4                vPortEnterCritical
 .text.vPortExitCritical
                0x0000000008004ff0       0x30 build/port.o
                0x0000000008004ff0                vPortExitCritical
 .text.PendSV_Handler
                0x0000000008005020       0x64 build/port.o
                0x0000000008005020                PendSV_Handler
 .text.xPortSysTickHandler
                0x0000000008005084       0x30 build/port.o
                0x0000000008005084                xPortSysTickHandler
 .text.vPortSetupTimerInterrupt
                0x00000000080050b4       0x38 build/port.o
                0x00000000080050b4                vPortSetupTimerInterrupt
 .text.xPortStartScheduler
                0x00000000080050ec       0xd0 build/port.o
                0x00000000080050ec                xPortStartScheduler
 .text.vPortValidateInterruptPriority
                0x00000000080051bc       0x64 build/port.o
                0x00000000080051bc                vPortValidateInterruptPriority
 .text.osKernelInitialize
                0x0000000008005220       0x3c build/cmsis_os2.o
                0x0000000008005220                osKernelInitialize
 .text.osKernelStart
                0x000000000800525c       0x48 build/cmsis_os2.o
                0x000000000800525c                osKernelStart
 .text.osThreadNew
                0x00000000080052a4       0xd8 build/cmsis_os2.o
                0x00000000080052a4                osThreadNew
 .text.osDelay  0x000000000800537c       0x3c build/cmsis_os2.o
                0x000000000800537c                osDelay
 .text.osMessageQueueNew
                0x00000000080053b8       0xb4 build/cmsis_os2.o
                0x00000000080053b8                osMessageQueueNew
 .text.osMessageQueuePut
                0x000000000800546c       0xa4 build/cmsis_os2.o
                0x000000000800546c                osMessageQueuePut
 .text.osMessageQueueGet
                0x0000000008005510       0xa4 build/cmsis_os2.o
                0x0000000008005510                osMessageQueueGet
 .text.vApplicationGetIdleTaskMemory
                0x00000000080055b4       0x18 build/cmsis_os2.o
                0x00000000080055b4                vApplicationGetIdleTaskMemory
 .text.vApplicationGetTimerTaskMemory
                0x00000000080055cc       0x18 build/cmsis_os2.o
                0x00000000080055cc                vApplicationGetTimerTaskMemory
 .text.prvLoggingThread
                0x00000000080055e4       0xec build/logging.o
 .text.prvCreatePrintSocket
                0x00000000080056d0       0x40 build/logging.o
 .text.prvLoggingPrintf
                0x0000000008005710       0x38 build/logging.o
 .text.vLoggingInit
                0x0000000008005748       0xdc build/logging.o
                0x0000000008005748                vLoggingInit
 .text.vLoggingPrintf
                0x0000000008005824       0x1c build/logging.o
                0x0000000008005824                vLoggingPrintf
 .text.prvCacheLookup
                0x0000000008005840       0x54 build/FreeRTOS_ARP.o
 .text.vARPRefreshCacheEntry
                0x0000000008005894      0x11c build/FreeRTOS_ARP.o
                0x0000000008005894                vARPRefreshCacheEntry
 .text.eARPProcessPacket
                0x00000000080059b0       0xa0 build/FreeRTOS_ARP.o
                0x00000000080059b0                eARPProcessPacket
 .text.eARPGetCacheEntry
                0x0000000008005a50       0x8c build/FreeRTOS_ARP.o
                0x0000000008005a50                eARPGetCacheEntry
 .text.vARPGenerateRequestPacket
                0x0000000008005adc       0x9c build/FreeRTOS_ARP.o
                0x0000000008005adc                vARPGenerateRequestPacket
 .text.FreeRTOS_OutputARPRequest
                0x0000000008005b78       0x48 build/FreeRTOS_ARP.o
                0x0000000008005b78                FreeRTOS_OutputARPRequest
 .text.vARPAgeCache
                0x0000000008005bc0       0x9c build/FreeRTOS_ARP.o
                0x0000000008005bc0                vARPAgeCache
 .text.FreeRTOS_ClearARP
                0x0000000008005c5c       0x14 build/FreeRTOS_ARP.o
                0x0000000008005c5c                FreeRTOS_ClearARP
 .text.prvCalculateSleepTime
                0x0000000008005c70       0x3c build/FreeRTOS_IP.o
 .text.prvPacketBuffer_to_NetworkBuffer
                0x0000000008005cac       0x1a build/FreeRTOS_IP.o
 *fill*         0x0000000008005cc6        0x2 
 .text.prvProcessICMPEchoRequest
                0x0000000008005cc8       0x38 build/FreeRTOS_IP.o
 .text.prvIPTimerStart
                0x0000000008005d00       0x2c build/FreeRTOS_IP.o
 .text.prvIPTimerReload
                0x0000000008005d2c        0xa build/FreeRTOS_IP.o
 .text.prvIPTimerCheck
                0x0000000008005d36       0x46 build/FreeRTOS_IP.o
 .text.prvProcessICMPEchoReply
                0x0000000008005d7c       0x38 build/FreeRTOS_IP.o
 .text.prvProcessICMPPacket
                0x0000000008005db4       0x20 build/FreeRTOS_IP.o
 .text.xIsCallingFromIPTask
                0x0000000008005dd4       0x1c build/FreeRTOS_IP.o
                0x0000000008005dd4                xIsCallingFromIPTask
 .text.pxUDPPayloadBuffer_to_NetworkBuffer
                0x0000000008005df0        0xa build/FreeRTOS_IP.o
                0x0000000008005df0                pxUDPPayloadBuffer_to_NetworkBuffer
 *fill*         0x0000000008005dfa        0x2 
 .text.FreeRTOS_GetAddressConfiguration
                0x0000000008005dfc       0x50 build/FreeRTOS_IP.o
                0x0000000008005dfc                FreeRTOS_GetAddressConfiguration
 .text.vIPNetworkUpCalls
                0x0000000008005e4c       0x24 build/FreeRTOS_IP.o
                0x0000000008005e4c                vIPNetworkUpCalls
 .text.xIsIPv4Multicast
                0x0000000008005e70       0x28 build/FreeRTOS_IP.o
                0x0000000008005e70                xIsIPv4Multicast
 .text.vSetMultiCastIPv4MacAddress
                0x0000000008005e98       0x1e build/FreeRTOS_IP.o
                0x0000000008005e98                vSetMultiCastIPv4MacAddress
 *fill*         0x0000000008005eb6        0x2 
 .text.vPrintResourceStats
                0x0000000008005eb8       0x70 build/FreeRTOS_IP.o
                0x0000000008005eb8                vPrintResourceStats
 .text.FreeRTOS_GetMACAddress
                0x0000000008005f28        0x8 build/FreeRTOS_IP.o
                0x0000000008005f28                FreeRTOS_GetMACAddress
 .text.xIPIsNetworkTaskReady
                0x0000000008005f30        0xc build/FreeRTOS_IP.o
                0x0000000008005f30                xIPIsNetworkTaskReady
 .text.FreeRTOS_IPInit
                0x0000000008005f3c      0x1a4 build/FreeRTOS_IP.o
                0x0000000008005f3c                FreeRTOS_IPInit
 .text.xSendEventStructToIPTask
                0x00000000080060e0       0x5c build/FreeRTOS_IP.o
                0x00000000080060e0                xSendEventStructToIPTask
 .text.FreeRTOS_NetworkDown
                0x000000000800613c       0x28 build/FreeRTOS_IP.o
                0x000000000800613c                FreeRTOS_NetworkDown
 .text.prvProcessNetworkDownEvent
                0x0000000008006164       0x4c build/FreeRTOS_IP.o
 .text.xSendEventToIPTask
                0x00000000080061b0       0x18 build/FreeRTOS_IP.o
                0x00000000080061b0                xSendEventToIPTask
 .text.prvCheckNetworkTimers
                0x00000000080061c8       0x60 build/FreeRTOS_IP.o
 .text.FreeRTOS_IsNetworkUp
                0x0000000008006228        0xc build/FreeRTOS_IP.o
                0x0000000008006228                FreeRTOS_IsNetworkUp
 .text.FreeRTOS_max_uint32
                0x0000000008006234        0x8 build/FreeRTOS_IP.o
                0x0000000008006234                FreeRTOS_max_uint32
 .text.FreeRTOS_min_int32
                0x000000000800623c        0x8 build/FreeRTOS_IP.o
                0x000000000800623c                FreeRTOS_min_int32
 .text.FreeRTOS_min_uint32
                0x0000000008006244        0x8 build/FreeRTOS_IP.o
                0x0000000008006244                FreeRTOS_min_uint32
 .text.FreeRTOS_round_up
                0x000000000800624c        0xe build/FreeRTOS_IP.o
                0x000000000800624c                FreeRTOS_round_up
 .text.vCastPointerTo_EthernetHeader_t
                0x000000000800625a        0x2 build/FreeRTOS_IP.o
                0x000000000800625a                vCastPointerTo_EthernetHeader_t
 .text.vReturnEthernetFrame
                0x000000000800625c       0x34 build/FreeRTOS_IP.o
                0x000000000800625c                vReturnEthernetFrame
 .text.vCastConstPointerTo_EthernetHeader_t
                0x0000000008006290        0x2 build/FreeRTOS_IP.o
                0x0000000008006290                vCastConstPointerTo_EthernetHeader_t
 .text.vCastConstPointerTo_IPHeader_t
                0x0000000008006292        0x2 build/FreeRTOS_IP.o
                0x0000000008006292                vCastConstPointerTo_IPHeader_t
 .text.vCastPointerTo_ARPPacket_t
                0x0000000008006294        0x2 build/FreeRTOS_IP.o
                0x0000000008006294                vCastPointerTo_ARPPacket_t
 .text.vCastPointerTo_IPPacket_t
                0x0000000008006296        0x2 build/FreeRTOS_IP.o
                0x0000000008006296                vCastPointerTo_IPPacket_t
 .text.vCastConstPointerTo_IPPacket_t
                0x0000000008006298        0x2 build/FreeRTOS_IP.o
                0x0000000008006298                vCastConstPointerTo_IPPacket_t
 *fill*         0x000000000800629a        0x2 
 .text.xCheckSizeFields
                0x000000000800629c       0xa0 build/FreeRTOS_IP.o
 .text.vCastPointerTo_ICMPPacket_t
                0x000000000800633c        0x2 build/FreeRTOS_IP.o
                0x000000000800633c                vCastPointerTo_ICMPPacket_t
 .text.vCastPointerTo_UDPPacket_t
                0x000000000800633e        0x2 build/FreeRTOS_IP.o
                0x000000000800633e                vCastPointerTo_UDPPacket_t
 .text.vCastConstPointerTo_UDPPacket_t
                0x0000000008006340        0x2 build/FreeRTOS_IP.o
                0x0000000008006340                vCastConstPointerTo_UDPPacket_t
 .text.vCastPointerTo_TCPPacket_t
                0x0000000008006342        0x2 build/FreeRTOS_IP.o
                0x0000000008006342                vCastPointerTo_TCPPacket_t
 .text.vCastConstPointerTo_TCPPacket_t
                0x0000000008006344        0x2 build/FreeRTOS_IP.o
                0x0000000008006344                vCastConstPointerTo_TCPPacket_t
 .text.vCastPointerTo_ProtocolPacket_t
                0x0000000008006346        0x2 build/FreeRTOS_IP.o
                0x0000000008006346                vCastPointerTo_ProtocolPacket_t
 .text.prvAllowIPPacket
                0x0000000008006348       0xbc build/FreeRTOS_IP.o
 .text.prvProcessIPPacket
                0x0000000008006404      0x120 build/FreeRTOS_IP.o
 .text.prvProcessEthernetPacket
                0x0000000008006524       0x76 build/FreeRTOS_IP.o
 .text.prvHandleEthernetPacket
                0x000000000800659a        0x8 build/FreeRTOS_IP.o
 .text.vCastPointerTo_ProtocolHeaders_t
                0x00000000080065a2        0x2 build/FreeRTOS_IP.o
                0x00000000080065a2                vCastPointerTo_ProtocolHeaders_t
 .text.vCastConstPointerTo_ProtocolHeaders_t
                0x00000000080065a4        0x2 build/FreeRTOS_IP.o
                0x00000000080065a4                vCastConstPointerTo_ProtocolHeaders_t
 .text.vCastPointerTo_FreeRTOS_Socket_t
                0x00000000080065a6        0x2 build/FreeRTOS_IP.o
                0x00000000080065a6                vCastPointerTo_FreeRTOS_Socket_t
 .text.vCastConstPointerTo_FreeRTOS_Socket_t
                0x00000000080065a8        0x2 build/FreeRTOS_IP.o
                0x00000000080065a8                vCastConstPointerTo_FreeRTOS_Socket_t
 .text.vCastPointerTo_SocketSelect_t
                0x00000000080065aa        0x2 build/FreeRTOS_IP.o
                0x00000000080065aa                vCastPointerTo_SocketSelect_t
 .text.prvIPTask
                0x00000000080065ac      0x158 build/FreeRTOS_IP.o
 .text.ulChar2u32
                0x0000000008006704       0x16 build/FreeRTOS_IP.o
                0x0000000008006704                ulChar2u32
 .text.usChar2u16
                0x000000000800671a        0xa build/FreeRTOS_IP.o
                0x000000000800671a                usChar2u16
 .text.prvSockopt_so_buffer
                0x0000000008006724       0x4c build/FreeRTOS_Sockets.o
 .text.prvDetermineSocketSize
                0x0000000008006770       0xdc build/FreeRTOS_Sockets.o
 .text.pxListFindListItemWithValue
                0x000000000800684c       0x2e build/FreeRTOS_Sockets.o
 *fill*         0x000000000800687a        0x2 
 .text.prvGetPrivatePortNumber
                0x000000000800687c       0x70 build/FreeRTOS_Sockets.o
 .text.prvTCPCreateStream
                0x00000000080068ec       0x7c build/FreeRTOS_Sockets.o
 .text.vNetworkSocketsInit
                0x0000000008006968       0x18 build/FreeRTOS_Sockets.o
                0x0000000008006968                vNetworkSocketsInit
 .text.FreeRTOS_socket
                0x0000000008006980       0xd4 build/FreeRTOS_Sockets.o
                0x0000000008006980                FreeRTOS_socket
 .text.FreeRTOS_bind
                0x0000000008006a54       0x8c build/FreeRTOS_Sockets.o
                0x0000000008006a54                FreeRTOS_bind
 .text.FreeRTOS_sendto
                0x0000000008006ae0       0xea build/FreeRTOS_Sockets.o
                0x0000000008006ae0                FreeRTOS_sendto
 *fill*         0x0000000008006bca        0x2 
 .text.vSocketBind
                0x0000000008006bcc       0xcc build/FreeRTOS_Sockets.o
                0x0000000008006bcc                vSocketBind
 .text.vSocketClose
                0x0000000008006c98       0x72 build/FreeRTOS_Sockets.o
                0x0000000008006c98                vSocketClose
 *fill*         0x0000000008006d0a        0x2 
 .text.prvTCPSetSocketCount
                0x0000000008006d0c       0x78 build/FreeRTOS_Sockets.o
 .text.pxUDPSocketLookup
                0x0000000008006d84       0x38 build/FreeRTOS_Sockets.o
                0x0000000008006d84                pxUDPSocketLookup
 .text.FreeRTOS_inet_ntoa
                0x0000000008006dbc       0x90 build/FreeRTOS_Sockets.o
                0x0000000008006dbc                FreeRTOS_inet_ntoa
 .text.vSocketWakeUpUser
                0x0000000008006e4c       0x3c build/FreeRTOS_Sockets.o
                0x0000000008006e4c                vSocketWakeUpUser
 .text.xTCPTimerCheck
                0x0000000008006e88       0x88 build/FreeRTOS_Sockets.o
                0x0000000008006e88                xTCPTimerCheck
 .text.pxTCPSocketLookup
                0x0000000008006f10       0x58 build/FreeRTOS_Sockets.o
                0x0000000008006f10                pxTCPSocketLookup
 .text.lTCPAddRxdata
                0x0000000008006f68       0x82 build/FreeRTOS_Sockets.o
                0x0000000008006f68                lTCPAddRxdata
 .text.FreeRTOS_tx_space
                0x0000000008006fea       0x20 build/FreeRTOS_Sockets.o
                0x0000000008006fea                FreeRTOS_tx_space
 .text.FreeRTOS_tx_size
                0x000000000800700a       0x1e build/FreeRTOS_Sockets.o
                0x000000000800700a                FreeRTOS_tx_size
 .text.FreeRTOS_setsockopt
                0x0000000008007028      0x25c build/FreeRTOS_Sockets.o
                0x0000000008007028                FreeRTOS_setsockopt
 .text.FreeRTOS_rx_size
                0x0000000008007284       0x1e build/FreeRTOS_Sockets.o
                0x0000000008007284                FreeRTOS_rx_size
 *fill*         0x00000000080072a2        0x2 
 .text.vTCPNetStat
                0x00000000080072a4      0x160 build/FreeRTOS_Sockets.o
                0x00000000080072a4                vTCPNetStat
 .text.vSocketSelect
                0x0000000008007404      0x170 build/FreeRTOS_Sockets.o
                0x0000000008007404                vSocketSelect
 .text.uxStreamBufferSpace
                0x0000000008007574       0x10 build/FreeRTOS_Stream_Buffer.o
                0x0000000008007574                uxStreamBufferSpace
 .text.uxStreamBufferDistance
                0x0000000008007584        0xe build/FreeRTOS_Stream_Buffer.o
                0x0000000008007584                uxStreamBufferDistance
 .text.uxStreamBufferGetSpace
                0x0000000008007592        0xc build/FreeRTOS_Stream_Buffer.o
                0x0000000008007592                uxStreamBufferGetSpace
 .text.uxStreamBufferFrontSpace
                0x000000000800759e        0xc build/FreeRTOS_Stream_Buffer.o
                0x000000000800759e                uxStreamBufferFrontSpace
 .text.uxStreamBufferGetSize
                0x00000000080075aa        0xc build/FreeRTOS_Stream_Buffer.o
                0x00000000080075aa                uxStreamBufferGetSize
 .text.uxStreamBufferMidSpace
                0x00000000080075b6        0xc build/FreeRTOS_Stream_Buffer.o
                0x00000000080075b6                uxStreamBufferMidSpace
 .text.vStreamBufferMoveMid
                0x00000000080075c2       0x20 build/FreeRTOS_Stream_Buffer.o
                0x00000000080075c2                vStreamBufferMoveMid
 .text.xStreamBufferLessThenEqual
                0x00000000080075e2       0x38 build/FreeRTOS_Stream_Buffer.o
                0x00000000080075e2                xStreamBufferLessThenEqual
 .text.uxStreamBufferAdd
                0x000000000800761a       0x88 build/FreeRTOS_Stream_Buffer.o
                0x000000000800761a                uxStreamBufferAdd
 .text.uxStreamBufferGet
                0x00000000080076a2       0x7e build/FreeRTOS_Stream_Buffer.o
                0x00000000080076a2                uxStreamBufferGet
 .text.prvTCPSocketIsActive
                0x0000000008007720       0x1e build/FreeRTOS_TCP_IP.o
 .text.prvWinScaleFactor
                0x000000000800773e       0x1e build/FreeRTOS_TCP_IP.o
 .text.prvSetSynAckOptions
                0x000000000800775c       0x3c build/FreeRTOS_TCP_IP.o
 .text.prvTCPAddTxData
                0x0000000008007798       0x2a build/FreeRTOS_TCP_IP.o
 *fill*         0x00000000080077c2        0x2 
 .text.prvSocketSetMSS
                0x00000000080077c4       0x50 build/FreeRTOS_TCP_IP.o
 .text.prvTCPReturnPacket
                0x0000000008007814      0x1f4 build/FreeRTOS_TCP_IP.o
 .text.prvTCPSendSpecialPacketHelper
                0x0000000008007a08       0x26 build/FreeRTOS_TCP_IP.o
 .text.prvTCPSendReset
                0x0000000008007a2e        0xa build/FreeRTOS_TCP_IP.o
 .text.prvTCPSendChallengeAck
                0x0000000008007a38        0xa build/FreeRTOS_TCP_IP.o
 .text.prvSetOptions
                0x0000000008007a42       0x68 build/FreeRTOS_TCP_IP.o
 .text.prvSendData
                0x0000000008007aaa       0xae build/FreeRTOS_TCP_IP.o
 .text.prvTCPTouchSocket
                0x0000000008007b58       0x28 build/FreeRTOS_TCP_IP.o
 .text.prvTCPBufferResize
                0x0000000008007b80       0x80 build/FreeRTOS_TCP_IP.o
 .text.prvTCPCreateWindow
                0x0000000008007c00       0x32 build/FreeRTOS_TCP_IP.o
 *fill*         0x0000000008007c32        0x2 
 .text.prvTCPPrepareConnect
                0x0000000008007c34      0x120 build/FreeRTOS_TCP_IP.o
 .text.prvTCPNextTimeout
                0x0000000008007d54       0xbc build/FreeRTOS_TCP_IP.o
 .text.prvTCPSocketCopy
                0x0000000008007e10       0x90 build/FreeRTOS_TCP_IP.o
 .text.prvReadSackOption
                0x0000000008007ea0       0x56 build/FreeRTOS_TCP_IP.o
 .text.prvSingleStepTCPHeaderOptions
                0x0000000008007ef6       0xf0 build/FreeRTOS_TCP_IP.o
 .text.prvCheckOptions
                0x0000000008007fe6       0x54 build/FreeRTOS_TCP_IP.o
 .text.prvCheckRxData
                0x000000000800803a       0x6e build/FreeRTOS_TCP_IP.o
 .text.prvStoreRxData
                0x00000000080080a8       0x96 build/FreeRTOS_TCP_IP.o
 *fill*         0x000000000800813e        0x2 
 .text.vSocketCloseNextTime
                0x0000000008008140       0x1c build/FreeRTOS_TCP_IP.o
                0x0000000008008140                vSocketCloseNextTime
 .text.vTCPStateChange
                0x000000000800815c      0x140 build/FreeRTOS_TCP_IP.o
                0x000000000800815c                vTCPStateChange
 .text.prvTCPPrepareSend
                0x000000000800829c      0x1e0 build/FreeRTOS_TCP_IP.o
 .text.prvTCPSendRepeated
                0x000000000800847c       0x38 build/FreeRTOS_TCP_IP.o
 .text.prvTCPSendPacket
                0x00000000080084b4       0x88 build/FreeRTOS_TCP_IP.o
 .text.prvTCPStatusAgeCheck
                0x000000000800853c       0x4c build/FreeRTOS_TCP_IP.o
 .text.xTCPSocketCheck
                0x0000000008008588       0x86 build/FreeRTOS_TCP_IP.o
                0x0000000008008588                xTCPSocketCheck
 *fill*         0x000000000800860e        0x2 
 .text.prvHandleListen
                0x0000000008008610      0x130 build/FreeRTOS_TCP_IP.o
 .text.prvHandleSynReceived
                0x0000000008008740      0x12e build/FreeRTOS_TCP_IP.o
 .text.prvTCPHandleFin
                0x000000000800886e       0xe0 build/FreeRTOS_TCP_IP.o
 .text.prvHandleEstablished
                0x000000000800894e      0x172 build/FreeRTOS_TCP_IP.o
 .text.prvTCPHandleState
                0x0000000008008ac0      0x17a build/FreeRTOS_TCP_IP.o
 .text.xProcessReceivedTCPPacket
                0x0000000008008c3a      0x26a build/FreeRTOS_TCP_IP.o
                0x0000000008008c3a                xProcessReceivedTCPPacket
 .text.FreeRTOS_GetTCPStateName
                0x0000000008008ea4       0x14 build/FreeRTOS_TCP_IP.o
                0x0000000008008ea4                FreeRTOS_GetTCPStateName
 .text.xTCPCheckNewClient
                0x0000000008008eb8       0x4c build/FreeRTOS_TCP_IP.o
                0x0000000008008eb8                xTCPCheckNewClient
 .text.vListInsertGeneric
                0x0000000008008f04       0x14 build/FreeRTOS_TCP_WIN.o
 .text.xTCPWindowRxFind
                0x0000000008008f18       0x22 build/FreeRTOS_TCP_WIN.o
 .text.xTCPWindowPeekHead
                0x0000000008008f3a        0xe build/FreeRTOS_TCP_WIN.o
 .text.lTCPIncrementTxPosition
                0x0000000008008f48        0xa build/FreeRTOS_TCP_WIN.o
 *fill*         0x0000000008008f52        0x2 
 .text.vTCPWindowFree
                0x0000000008008f54       0x38 build/FreeRTOS_TCP_WIN.o
 .text.xTCPWindowGetHead
                0x0000000008008f8c       0x16 build/FreeRTOS_TCP_WIN.o
 *fill*         0x0000000008008fa2        0x2 
 .text.prvCreateSectors
                0x0000000008008fa4       0x54 build/FreeRTOS_TCP_WIN.o
 .text.xTCPWindowNew
                0x0000000008008ff8       0xa8 build/FreeRTOS_TCP_WIN.o
 .text.prvTCPWindowTxHasSpace
                0x00000000080090a0       0x46 build/FreeRTOS_TCP_WIN.o
 .text.xSequenceLessThan
                0x00000000080090e6        0xe build/FreeRTOS_TCP_WIN.o
                0x00000000080090e6                xSequenceLessThan
 .text.xTCPWindowRxConfirm
                0x00000000080090f4       0x54 build/FreeRTOS_TCP_WIN.o
 .text.prvTCPWindowFastRetransmit
                0x0000000008009148       0x60 build/FreeRTOS_TCP_WIN.o
 .text.xSequenceGreaterThan
                0x00000000080091a8        0xe build/FreeRTOS_TCP_WIN.o
                0x00000000080091a8                xSequenceGreaterThan
 .text.prvTCPWindowTxCheckAck
                0x00000000080091b6       0xf6 build/FreeRTOS_TCP_WIN.o
 .text.xTCPWindowRxEmpty
                0x00000000080092ac       0x1c build/FreeRTOS_TCP_WIN.o
                0x00000000080092ac                xTCPWindowRxEmpty
 .text.vTCPWindowDestroy
                0x00000000080092c8       0x36 build/FreeRTOS_TCP_WIN.o
                0x00000000080092c8                vTCPWindowDestroy
 .text.vTCPWindowInit
                0x00000000080092fe       0x4e build/FreeRTOS_TCP_WIN.o
                0x00000000080092fe                vTCPWindowInit
 .text.vTCPWindowCreate
                0x000000000800934c       0x54 build/FreeRTOS_TCP_WIN.o
                0x000000000800934c                vTCPWindowCreate
 .text.lTCPWindowRxCheck
                0x00000000080093a0      0x120 build/FreeRTOS_TCP_WIN.o
                0x00000000080093a0                lTCPWindowRxCheck
 .text.lTCPWindowTxAdd
                0x00000000080094c0       0xd6 build/FreeRTOS_TCP_WIN.o
                0x00000000080094c0                lTCPWindowTxAdd
 .text.xTCPWindowTxDone
                0x0000000008009596        0xe build/FreeRTOS_TCP_WIN.o
                0x0000000008009596                xTCPWindowTxDone
 .text.xTCPWindowTxHasData
                0x00000000080095a4       0x76 build/FreeRTOS_TCP_WIN.o
                0x00000000080095a4                xTCPWindowTxHasData
 .text.ulTCPWindowTxGet
                0x000000000800961a      0x120 build/FreeRTOS_TCP_WIN.o
                0x000000000800961a                ulTCPWindowTxGet
 .text.ulTCPWindowTxAck
                0x000000000800973a       0x16 build/FreeRTOS_TCP_WIN.o
                0x000000000800973a                ulTCPWindowTxAck
 .text.ulTCPWindowTxSack
                0x0000000008009750       0x18 build/FreeRTOS_TCP_WIN.o
                0x0000000008009750                ulTCPWindowTxSack
 .text.vProcessGeneratedUDPPacket
                0x0000000008009768       0xdc build/FreeRTOS_UDP_IP.o
                0x0000000008009768                vProcessGeneratedUDPPacket
 .text.xProcessReceivedUDPPacket
                0x0000000008009844       0x9c build/FreeRTOS_UDP_IP.o
                0x0000000008009844                xProcessReceivedUDPPacket
 .text.bIsValidNetworkDescriptor
                0x00000000080098e0        0x4 build/BufferAllocation_1.o
 .text.xNetworkBuffersInitialise
                0x00000000080098e4       0x88 build/BufferAllocation_1.o
                0x00000000080098e4                xNetworkBuffersInitialise
 .text.pxGetNetworkBufferWithDescriptor
                0x000000000800996c       0x70 build/BufferAllocation_1.o
                0x000000000800996c                pxGetNetworkBufferWithDescriptor
 .text.vReleaseNetworkBufferAndDescriptor
                0x00000000080099dc       0x48 build/BufferAllocation_1.o
                0x00000000080099dc                vReleaseNetworkBufferAndDescriptor
 .text.uxGetMinimumFreeNetworkBuffers
                0x0000000008009a24        0xc build/BufferAllocation_1.o
                0x0000000008009a24                uxGetMinimumFreeNetworkBuffers
 .text.uxGetNumberOfFreeNetworkBuffers
                0x0000000008009a30        0xc build/BufferAllocation_1.o
                0x0000000008009a30                uxGetNumberOfFreeNetworkBuffers
 .text.xHas_1F_PHYSPCS
                0x0000000008009a3c       0x14 build/phyHandling.o
 .text.xHas_19_PHYCR
                0x0000000008009a50       0x20 build/phyHandling.o
 .text.xPhyReset
                0x0000000008009a70       0xd8 build/phyHandling.o
 .text.vPhyInitialise
                0x0000000008009b48       0x18 build/phyHandling.o
                0x0000000008009b48                vPhyInitialise
 .text.xPhyDiscover
                0x0000000008009b60       0x78 build/phyHandling.o
                0x0000000008009b60                xPhyDiscover
 .text.xPhyConfigure
                0x0000000008009bd8      0x154 build/phyHandling.o
                0x0000000008009bd8                xPhyConfigure
 .text.xPhyFixedValue
                0x0000000008009d2c       0x52 build/phyHandling.o
                0x0000000008009d2c                xPhyFixedValue
 *fill*         0x0000000008009d7e        0x2 
 .text.xPhyStartAutoNegotiation
                0x0000000008009d80      0x1e4 build/phyHandling.o
                0x0000000008009d80                xPhyStartAutoNegotiation
 .text.xPhyCheckLinkStatus
                0x0000000008009f64       0xd8 build/phyHandling.o
                0x0000000008009f64                xPhyCheckLinkStatus
 .text.prvDMATxDescListInit
                0x000000000800a03c       0x6c build/NetworkInterface.o
 .text.prvDMARxDescListInit
                0x000000000800a0a8       0x50 build/NetworkInterface.o
 .text.xMayAcceptPacket
                0x000000000800a0f8       0x18 build/NetworkInterface.o
 .text.prvPassEthMessages
                0x000000000800a110       0x34 build/NetworkInterface.o
 .text.prvNetworkInterfaceInput
                0x000000000800a144       0xd8 build/NetworkInterface.o
 .text.vClearTXBuffers
                0x000000000800a21c       0x4c build/NetworkInterface.o
 .text.prvEthernetUpdateConfig
                0x000000000800a268       0xd4 build/NetworkInterface.o
 .text.prvEMACHandlerTask
                0x000000000800a33c       0xb4 build/NetworkInterface.o
 .text.xSTM32_PhyRead
                0x000000000800a3f0       0x20 build/NetworkInterface.o
                0x000000000800a3f0                xSTM32_PhyRead
 .text.xSTM32_PhyWrite
                0x000000000800a410       0x20 build/NetworkInterface.o
                0x000000000800a410                xSTM32_PhyWrite
 .text.HAL_ETH_RxCpltCallback
                0x000000000800a430       0x48 build/NetworkInterface.o
                0x000000000800a430                HAL_ETH_RxCpltCallback
 .text.HAL_ETH_TxCpltCallback
                0x000000000800a478       0x48 build/NetworkInterface.o
                0x000000000800a478                HAL_ETH_TxCpltCallback
 .text.xNetworkInterfaceInitialise
                0x000000000800a4c0      0x114 build/NetworkInterface.o
                0x000000000800a4c0                xNetworkInterfaceInitialise
 .text.xNetworkInterfaceOutput
                0x000000000800a5d4       0xc8 build/NetworkInterface.o
                0x000000000800a5d4                xNetworkInterfaceOutput
 .text.vMACBProbePhy
                0x000000000800a69c       0x30 build/NetworkInterface.o
                0x000000000800a69c                vMACBProbePhy
 .text.vNetworkInterfaceAllocateRAMToBuffers
                0x000000000800a6cc       0x30 build/NetworkInterface.o
                0x000000000800a6cc                vNetworkInterfaceAllocateRAMToBuffers
 .text.ETH_IRQHandler
                0x000000000800a6fc       0x10 build/NetworkInterface.o
                0x000000000800a6fc                ETH_IRQHandler
 .text.vRegisterDelay
                0x000000000800a70c       0x34 build/stm32fxx_hal_eth.o
 .text.prvWriteMACFCR
                0x000000000800a740       0x18 build/stm32fxx_hal_eth.o
 .text.prvWriteDMAOMR
                0x000000000800a758       0x1c build/stm32fxx_hal_eth.o
 .text.prvWriteMACCR
                0x000000000800a774       0x18 build/stm32fxx_hal_eth.o
 .text.ETH_MACAddressConfig
                0x000000000800a78c       0x34 build/stm32fxx_hal_eth.o
 .text.ETH_MACDMAConfig
                0x000000000800a7c0       0xf4 build/stm32fxx_hal_eth.o
 .text.ETH_MACTransmissionEnable
                0x000000000800a8b4       0x10 build/stm32fxx_hal_eth.o
 .text.ETH_MACTransmissionDisable
                0x000000000800a8c4       0x10 build/stm32fxx_hal_eth.o
 .text.ETH_MACReceptionEnable
                0x000000000800a8d4       0x1a build/stm32fxx_hal_eth.o
 .text.ETH_MACReceptionDisable
                0x000000000800a8ee       0x1a build/stm32fxx_hal_eth.o
 .text.ETH_DMATransmissionEnable
                0x000000000800a908       0x1e build/stm32fxx_hal_eth.o
 .text.ETH_DMATransmissionDisable
                0x000000000800a926       0x1e build/stm32fxx_hal_eth.o
 .text.ETH_DMAReceptionEnable
                0x000000000800a944       0x1e build/stm32fxx_hal_eth.o
 .text.ETH_DMAReceptionDisable
                0x000000000800a962       0x1e build/stm32fxx_hal_eth.o
 .text.ETH_FlushTransmitFIFO
                0x000000000800a980       0x1e build/stm32fxx_hal_eth.o
 *fill*         0x000000000800a99e        0x2 
 .text.HAL_ETH_Init
                0x000000000800a9a0       0xec build/stm32fxx_hal_eth.o
                0x000000000800a9a0                HAL_ETH_Init
 .text.HAL_ETH_ErrorCallback
                0x000000000800aa8c        0x2 build/stm32fxx_hal_eth.o
                0x000000000800aa8c                HAL_ETH_ErrorCallback
 *fill*         0x000000000800aa8e        0x2 
 .text.HAL_ETH_IRQHandler
                0x000000000800aa90       0x40 build/stm32fxx_hal_eth.o
                0x000000000800aa90                HAL_ETH_IRQHandler
 .text.HAL_ETH_ReadPHYRegister
                0x000000000800aad0       0x7e build/stm32fxx_hal_eth.o
                0x000000000800aad0                HAL_ETH_ReadPHYRegister
 .text.HAL_ETH_WritePHYRegister
                0x000000000800ab4e       0x7e build/stm32fxx_hal_eth.o
                0x000000000800ab4e                HAL_ETH_WritePHYRegister
 .text.HAL_ETH_Start
                0x000000000800abcc       0x44 build/stm32fxx_hal_eth.o
                0x000000000800abcc                HAL_ETH_Start
 .text.HAL_ETH_Stop
                0x000000000800ac10       0x44 build/stm32fxx_hal_eth.o
                0x000000000800ac10                HAL_ETH_Stop
 .text.HAL_ETH_ConfigMAC
                0x000000000800ac54      0x108 build/stm32fxx_hal_eth.o
                0x000000000800ac54                HAL_ETH_ConfigMAC
 .text.Reset_Handler
                0x000000000800ad5c       0x50 build/startup_stm32f746xx.o
                0x000000000800ad5c                Reset_Handler
 .text.Default_Handler
                0x000000000800adac        0x2 build/startup_stm32f746xx.o
                0x000000000800adac                DMA1_Stream3_IRQHandler
                0x000000000800adac                EXTI2_IRQHandler
                0x000000000800adac                TIM8_CC_IRQHandler
                0x000000000800adac                UART8_IRQHandler
                0x000000000800adac                SPI4_IRQHandler
                0x000000000800adac                TIM1_CC_IRQHandler
                0x000000000800adac                DMA2_Stream5_IRQHandler
                0x000000000800adac                DMA1_Stream5_IRQHandler
                0x000000000800adac                PVD_IRQHandler
                0x000000000800adac                TAMP_STAMP_IRQHandler
                0x000000000800adac                CAN2_RX1_IRQHandler
                0x000000000800adac                EXTI3_IRQHandler
                0x000000000800adac                TIM8_TRG_COM_TIM14_IRQHandler
                0x000000000800adac                TIM1_UP_TIM10_IRQHandler
                0x000000000800adac                I2C3_ER_IRQHandler
                0x000000000800adac                EXTI0_IRQHandler
                0x000000000800adac                I2C2_EV_IRQHandler
                0x000000000800adac                DMA1_Stream2_IRQHandler
                0x000000000800adac                CAN1_RX0_IRQHandler
                0x000000000800adac                FPU_IRQHandler
                0x000000000800adac                OTG_HS_WKUP_IRQHandler
                0x000000000800adac                LTDC_ER_IRQHandler
                0x000000000800adac                CAN2_SCE_IRQHandler
                0x000000000800adac                DMA2_Stream2_IRQHandler
                0x000000000800adac                SPI1_IRQHandler
                0x000000000800adac                TIM6_DAC_IRQHandler
                0x000000000800adac                TIM1_BRK_TIM9_IRQHandler
                0x000000000800adac                DCMI_IRQHandler
                0x000000000800adac                CAN2_RX0_IRQHandler
                0x000000000800adac                DMA2_Stream3_IRQHandler
                0x000000000800adac                SAI2_IRQHandler
                0x000000000800adac                USART6_IRQHandler
                0x000000000800adac                USART3_IRQHandler
                0x000000000800adac                CAN1_RX1_IRQHandler
                0x000000000800adac                UART5_IRQHandler
                0x000000000800adac                DMA2_Stream0_IRQHandler
                0x000000000800adac                TIM4_IRQHandler
                0x000000000800adac                QUADSPI_IRQHandler
                0x000000000800adac                I2C1_EV_IRQHandler
                0x000000000800adac                DMA1_Stream6_IRQHandler
                0x000000000800adac                DMA1_Stream1_IRQHandler
                0x000000000800adac                UART4_IRQHandler
                0x000000000800adac                TIM3_IRQHandler
                0x000000000800adac                RCC_IRQHandler
                0x000000000800adac                TIM8_BRK_TIM12_IRQHandler
                0x000000000800adac                Default_Handler
                0x000000000800adac                CEC_IRQHandler
                0x000000000800adac                EXTI15_10_IRQHandler
                0x000000000800adac                ADC_IRQHandler
                0x000000000800adac                DMA1_Stream7_IRQHandler
                0x000000000800adac                SPI5_IRQHandler
                0x000000000800adac                TIM7_IRQHandler
                0x000000000800adac                SDMMC1_IRQHandler
                0x000000000800adac                CAN2_TX_IRQHandler
                0x000000000800adac                TIM5_IRQHandler
                0x000000000800adac                DMA2_Stream7_IRQHandler
                0x000000000800adac                I2C3_EV_IRQHandler
                0x000000000800adac                EXTI9_5_IRQHandler
                0x000000000800adac                RTC_WKUP_IRQHandler
                0x000000000800adac                LTDC_IRQHandler
                0x000000000800adac                ETH_WKUP_IRQHandler
                0x000000000800adac                SPDIF_RX_IRQHandler
                0x000000000800adac                SPI2_IRQHandler
                0x000000000800adac                OTG_HS_EP1_IN_IRQHandler
                0x000000000800adac                DMA1_Stream0_IRQHandler
                0x000000000800adac                CAN1_TX_IRQHandler
                0x000000000800adac                EXTI4_IRQHandler
                0x000000000800adac                RNG_IRQHandler
                0x000000000800adac                OTG_HS_EP1_OUT_IRQHandler
                0x000000000800adac                WWDG_IRQHandler
                0x000000000800adac                SPI6_IRQHandler
                0x000000000800adac                I2C4_EV_IRQHandler
                0x000000000800adac                TIM2_IRQHandler
                0x000000000800adac                OTG_FS_WKUP_IRQHandler
                0x000000000800adac                TIM1_TRG_COM_TIM11_IRQHandler
                0x000000000800adac                OTG_HS_IRQHandler
                0x000000000800adac                DMA2D_IRQHandler
                0x000000000800adac                EXTI1_IRQHandler
                0x000000000800adac                UART7_IRQHandler
                0x000000000800adac                USART2_IRQHandler
                0x000000000800adac                I2C2_ER_IRQHandler
                0x000000000800adac                DMA2_Stream1_IRQHandler
                0x000000000800adac                CAN1_SCE_IRQHandler
                0x000000000800adac                FLASH_IRQHandler
                0x000000000800adac                DMA2_Stream4_IRQHandler
                0x000000000800adac                USART1_IRQHandler
                0x000000000800adac                OTG_FS_IRQHandler
                0x000000000800adac                SPI3_IRQHandler
                0x000000000800adac                DMA1_Stream4_IRQHandler
                0x000000000800adac                I2C1_ER_IRQHandler
                0x000000000800adac                FMC_IRQHandler
                0x000000000800adac                LPTIM1_IRQHandler
                0x000000000800adac                I2C4_ER_IRQHandler
                0x000000000800adac                DMA2_Stream6_IRQHandler
                0x000000000800adac                SAI1_IRQHandler
                0x000000000800adac                RTC_Alarm_IRQHandler
 *fill*         0x000000000800adae        0x2 
 .text.__libc_init_array
                0x000000000800adb0       0x48 /usr/local/Caskroom/gcc-arm-embedded/9-2019-q4-major/gcc-arm-none-eabi-9-2019-q4-major/bin/../lib/gcc/arm-none-eabi/9.2.1/../../../../arm-none-eabi/lib/thumb/v7e-m+fp/hard/libc_nano.a(lib_a-init.o)
                0x000000000800adb0                __libc_init_array
 .text.memcmp   0x000000000800adf8       0x1c /usr/local/Caskroom/gcc-arm-embedded/9-2019-q4-major/gcc-arm-none-eabi-9-2019-q4-major/bin/../lib/gcc/arm-none-eabi/9.2.1/../../../../arm-none-eabi/lib/thumb/v7e-m+fp/hard/libc_nano.a(lib_a-memcmp.o)
                0x000000000800adf8                memcmp
 .text.memcpy   0x000000000800ae14       0x1c /usr/local/Caskroom/gcc-arm-embedded/9-2019-q4-major/gcc-arm-none-eabi-9-2019-q4-major/bin/../lib/gcc/arm-none-eabi/9.2.1/../../../../arm-none-eabi/lib/thumb/v7e-m+fp/hard/libc_nano.a(lib_a-memcpy-stub.o)
                0x000000000800ae14                memcpy
 .text.memmove  0x000000000800ae30       0x34 /usr/local/Caskroom/gcc-arm-embedded/9-2019-q4-major/gcc-arm-none-eabi-9-2019-q4-major/bin/../lib/gcc/arm-none-eabi/9.2.1/../../../../arm-none-eabi/lib/thumb/v7e-m+fp/hard/libc_nano.a(lib_a-memmove.o)
                0x000000000800ae30                memmove
 .text.memset   0x000000000800ae64       0x10 /usr/local/Caskroom/gcc-arm-embedded/9-2019-q4-major/gcc-arm-none-eabi-9-2019-q4-major/bin/../lib/gcc/arm-none-eabi/9.2.1/../../../../arm-none-eabi/lib/thumb/v7e-m+fp/hard/libc_nano.a(lib_a-memset.o)
                0x000000000800ae64                memset
 .text.snprintf
                0x000000000800ae74       0x68 /usr/local/Caskroom/gcc-arm-embedded/9-2019-q4-major/gcc-arm-none-eabi-9-2019-q4-major/bin/../lib/gcc/arm-none-eabi/9.2.1/../../../../arm-none-eabi/lib/thumb/v7e-m+fp/hard/libc_nano.a(lib_a-snprintf.o)
                0x000000000800ae74                snprintf
                0x000000000800ae74                sniprintf
 .text._vsnprintf_r
                0x000000000800aedc       0x58 /usr/local/Caskroom/gcc-arm-embedded/9-2019-q4-major/gcc-arm-none-eabi-9-2019-q4-major/bin/../lib/gcc/arm-none-eabi/9.2.1/../../../../arm-none-eabi/lib/thumb/v7e-m+fp/hard/libc_nano.a(lib_a-vsnprintf.o)
                0x000000000800aedc                _vsnprintf_r
                0x000000000800aedc                _vsniprintf_r
 .text.vsnprintf
                0x000000000800af34       0x1c /usr/local/Caskroom/gcc-arm-embedded/9-2019-q4-major/gcc-arm-none-eabi-9-2019-q4-major/bin/../lib/gcc/arm-none-eabi/9.2.1/../../../../arm-none-eabi/lib/thumb/v7e-m+fp/hard/libc_nano.a(lib_a-vsnprintf.o)
                0x000000000800af34                vsnprintf
                0x000000000800af34                vsniprintf
 .text.__ssputs_r
                0x000000000800af50       0xb6 /usr/local/Caskroom/gcc-arm-embedded/9-2019-q4-major/gcc-arm-none-eabi-9-2019-q4-major/bin/../lib/gcc/arm-none-eabi/9.2.1/../../../../arm-none-eabi/lib/thumb/v7e-m+fp/hard/libc_nano.a(lib_a-nano-svfprintf.o)
                0x000000000800af50                __ssputs_r
 *fill*         0x000000000800b006        0x2 
 .text._svfprintf_r
                0x000000000800b008      0x200 /usr/local/Caskroom/gcc-arm-embedded/9-2019-q4-major/gcc-arm-none-eabi-9-2019-q4-major/bin/../lib/gcc/arm-none-eabi/9.2.1/../../../../arm-none-eabi/lib/thumb/v7e-m+fp/hard/libc_nano.a(lib_a-nano-svfprintf.o)
                0x000000000800b008                _svfprintf_r
                0x000000000800b008                _svfiprintf_r
 .text._printf_common
                0x000000000800b208       0xda /usr/local/Caskroom/gcc-arm-embedded/9-2019-q4-major/gcc-arm-none-eabi-9-2019-q4-major/bin/../lib/gcc/arm-none-eabi/9.2.1/../../../../arm-none-eabi/lib/thumb/v7e-m+fp/hard/libc_nano.a(lib_a-nano-vfprintf_i.o)
                0x000000000800b208                _printf_common
 *fill*         0x000000000800b2e2        0x2 
 .text._printf_i
                0x000000000800b2e4      0x24c /usr/local/Caskroom/gcc-arm-embedded/9-2019-q4-major/gcc-arm-none-eabi-9-2019-q4-major/bin/../lib/gcc/arm-none-eabi/9.2.1/../../../../arm-none-eabi/lib/thumb/v7e-m+fp/hard/libc_nano.a(lib_a-nano-vfprintf_i.o)
                0x000000000800b2e4                _printf_i
 .text._free_r  0x000000000800b530       0xa0 /usr/local/Caskroom/gcc-arm-embedded/9-2019-q4-major/gcc-arm-none-eabi-9-2019-q4-major/bin/../lib/gcc/arm-none-eabi/9.2.1/../../../../arm-none-eabi/lib/thumb/v7e-m+fp/hard/libc_nano.a(lib_a-nano-freer.o)
                0x000000000800b530                _free_r
 .text._malloc_r
                0x000000000800b5d0       0xb4 /usr/local/Caskroom/gcc-arm-embedded/9-2019-q4-major/gcc-arm-none-eabi-9-2019-q4-major/bin/../lib/gcc/arm-none-eabi/9.2.1/../../../../arm-none-eabi/lib/thumb/v7e-m+fp/hard/libc_nano.a(lib_a-nano-mallocr.o)
                0x000000000800b5d0                _malloc_r
 .text._realloc_r
                0x000000000800b684       0x4c /usr/local/Caskroom/gcc-arm-embedded/9-2019-q4-major/gcc-arm-none-eabi-9-2019-q4-major/bin/../lib/gcc/arm-none-eabi/9.2.1/../../../../arm-none-eabi/lib/thumb/v7e-m+fp/hard/libc_nano.a(lib_a-nano-reallocr.o)
                0x000000000800b684                _realloc_r
 .text._sbrk_r  0x000000000800b6d0       0x20 /usr/local/Caskroom/gcc-arm-embedded/9-2019-q4-major/gcc-arm-none-eabi-9-2019-q4-major/bin/../lib/gcc/arm-none-eabi/9.2.1/../../../../arm-none-eabi/lib/thumb/v7e-m+fp/hard/libc_nano.a(lib_a-sbrkr.o)
                0x000000000800b6d0                _sbrk_r
 .text.__malloc_lock
                0x000000000800b6f0        0xc /usr/local/Caskroom/gcc-arm-embedded/9-2019-q4-major/gcc-arm-none-eabi-9-2019-q4-major/bin/../lib/gcc/arm-none-eabi/9.2.1/../../../../arm-none-eabi/lib/thumb/v7e-m+fp/hard/libc_nano.a(lib_a-mlock.o)
                0x000000000800b6f0                __malloc_lock
 .text.__malloc_unlock
                0x000000000800b6fc        0xc /usr/local/Caskroom/gcc-arm-embedded/9-2019-q4-major/gcc-arm-none-eabi-9-2019-q4-major/bin/../lib/gcc/arm-none-eabi/9.2.1/../../../../arm-none-eabi/lib/thumb/v7e-m+fp/hard/libc_nano.a(lib_a-mlock.o)
                0x000000000800b6fc                __malloc_unlock
 .text._malloc_usable_size_r
                0x000000000800b708       0x10 /usr/local/Caskroom/gcc-arm-embedded/9-2019-q4-major/gcc-arm-none-eabi-9-2019-q4-major/bin/../lib/gcc/arm-none-eabi/9.2.1/../../../../arm-none-eabi/lib/thumb/v7e-m+fp/hard/libc_nano.a(lib_a-nano-msizer.o)
                0x000000000800b708                _malloc_usable_size_r
 .text.__retarget_lock_acquire_recursive
                0x000000000800b718        0x2 /usr/local/Caskroom/gcc-arm-embedded/9-2019-q4-major/gcc-arm-none-eabi-9-2019-q4-major/bin/../lib/gcc/arm-none-eabi/9.2.1/../../../../arm-none-eabi/lib/thumb/v7e-m+fp/hard/libc_nano.a(lib_a-lock.o)
                0x000000000800b718                __retarget_lock_acquire_recursive
 .text.__retarget_lock_release_recursive
                0x000000000800b71a        0x2 /usr/local/Caskroom/gcc-arm-embedded/9-2019-q4-major/gcc-arm-none-eabi-9-2019-q4-major/bin/../lib/gcc/arm-none-eabi/9.2.1/../../../../arm-none-eabi/lib/thumb/v7e-m+fp/hard/libc_nano.a(lib_a-lock.o)
                0x000000000800b71a                __retarget_lock_release_recursive
 .text._sbrk    0x000000000800b71c       0x1c /usr/local/Caskroom/gcc-arm-embedded/9-2019-q4-major/gcc-arm-none-eabi-9-2019-q4-major/bin/../lib/gcc/arm-none-eabi/9.2.1/../../../../arm-none-eabi/lib/thumb/v7e-m+fp/hard/libnosys.a(sbrk.o)
                0x000000000800b71c                _sbrk
 *(.glue_7)
 .glue_7        0x000000000800b738        0x0 linker stubs
 *(.glue_7t)
 .glue_7t       0x000000000800b738        0x0 linker stubs
 *(.eh_frame)
 .eh_frame      0x000000000800b738        0x0 /usr/local/Caskroom/gcc-arm-embedded/9-2019-q4-major/gcc-arm-none-eabi-9-2019-q4-major/bin/../lib/gcc/arm-none-eabi/9.2.1/thumb/v7e-m+fp/hard/crtbegin.o
 *(.init)
 .init          0x000000000800b738        0x4 /usr/local/Caskroom/gcc-arm-embedded/9-2019-q4-major/gcc-arm-none-eabi-9-2019-q4-major/bin/../lib/gcc/arm-none-eabi/9.2.1/thumb/v7e-m+fp/hard/crti.o
                0x000000000800b738                _init
 .init          0x000000000800b73c        0x8 /usr/local/Caskroom/gcc-arm-embedded/9-2019-q4-major/gcc-arm-none-eabi-9-2019-q4-major/bin/../lib/gcc/arm-none-eabi/9.2.1/thumb/v7e-m+fp/hard/crtn.o
 *(.fini)
 .fini          0x000000000800b744        0x4 /usr/local/Caskroom/gcc-arm-embedded/9-2019-q4-major/gcc-arm-none-eabi-9-2019-q4-major/bin/../lib/gcc/arm-none-eabi/9.2.1/thumb/v7e-m+fp/hard/crti.o
                0x000000000800b744                _fini
 .fini          0x000000000800b748        0x8 /usr/local/Caskroom/gcc-arm-embedded/9-2019-q4-major/gcc-arm-none-eabi-9-2019-q4-major/bin/../lib/gcc/arm-none-eabi/9.2.1/thumb/v7e-m+fp/hard/crtn.o
                0x000000000800b750                . = ALIGN (0x4)
                0x000000000800b750                _etext = .

.vfp11_veneer   0x000000000800b750        0x0
 .vfp11_veneer  0x000000000800b750        0x0 linker stubs

.v4_bx          0x000000000800b750        0x0
 .v4_bx         0x000000000800b750        0x0 linker stubs

.iplt           0x000000000800b750        0x0
 .iplt          0x000000000800b750        0x0 /usr/local/Caskroom/gcc-arm-embedded/9-2019-q4-major/gcc-arm-none-eabi-9-2019-q4-major/bin/../lib/gcc/arm-none-eabi/9.2.1/thumb/v7e-m+fp/hard/crtbegin.o

.rodata         0x000000000800b750      0x68c
                0x000000000800b750                . = ALIGN (0x4)
 *(.rodata)
 .rodata        0x000000000800b750       0x26 build/FreeRTOS_ARP.o
 *(.rodata*)
 *fill*         0x000000000800b776        0x2 
 .rodata.prvStartupTask.str1.4
                0x000000000800b778       0x1f build/main.o
 *fill*         0x000000000800b797        0x1 
 .rodata.str1.4
                0x000000000800b798        0xa build/main.o
 *fill*         0x000000000800b7a2        0x2 
 .rodata.StartupTask_attributes
                0x000000000800b7a4       0x24 build/main.o
                0x000000000800b7a4                StartupTask_attributes
 .rodata.ucDNSServerAddress
                0x000000000800b7c8        0x4 build/main.o
 .rodata.ucGatewayAddress
                0x000000000800b7cc        0x4 build/main.o
 .rodata.ucIPAddress
                0x000000000800b7d0        0x4 build/main.o
 .rodata.ucNetMask
                0x000000000800b7d4        0x4 build/main.o
 .rodata.vApplicationStackOverflowHook.str1.4
                0x000000000800b7d8       0x21 build/freertos.o
 *fill*         0x000000000800b7f9        0x3 
 .rodata.vApplicationIPNetworkEventHook.str1.4
                0x000000000800b7fc       0x5f build/freertos.o
                                         0x73 (size before relaxing)
 *fill*         0x000000000800b85b        0x1 
 .rodata.vApplicationPingReplyHook.str1.4
                0x000000000800b85c       0x17 build/freertos.o
 *fill*         0x000000000800b873        0x1 
 .rodata.GPIO_PIN
                0x000000000800b874        0x6 build/stm32f7xx_nucleo_144.o
                0x000000000800b874                GPIO_PIN
 *fill*         0x000000000800b87a        0x2 
 .rodata.AHBPrescTable
                0x000000000800b87c       0x10 build/system_stm32f7xx.o
                0x000000000800b87c                AHBPrescTable
 .rodata.APBPrescTable
                0x000000000800b88c        0x8 build/system_stm32f7xx.o
                0x000000000800b88c                APBPrescTable
 .rodata.vTaskStartScheduler.str1.4
                0x000000000800b894        0x5 build/tasks.o
 *fill*         0x000000000800b899        0x3 
 .rodata.prvCheckForValidListAndQueue.str1.4
                0x000000000800b89c        0x5 build/timers.o
 *fill*         0x000000000800b8a1        0x3 
 .rodata.xTimerCreateTimerTask.str1.4
                0x000000000800b8a4        0x8 build/timers.o
 .rodata.str1.4
                0x000000000800b8ac        0x7 build/logging.o
 *fill*         0x000000000800b8b3        0x1 
 .rodata.LoggerTask_attributes
                0x000000000800b8b4       0x24 build/logging.o
                0x000000000800b8b4                LoggerTask_attributes
 .rodata.xSendTimeOut.11673
                0x000000000800b8d8        0x4 build/logging.o
 .rodata.vPrintResourceStats.str1.4
                0x000000000800b8dc       0x42 build/FreeRTOS_IP.o
 *fill*         0x000000000800b91e        0x2 
 .rodata.FreeRTOS_IPInit.str1.4
                0x000000000800b920       0x10 build/FreeRTOS_IP.o
 .rodata.xCheckSizeFields.str1.4
                0x000000000800b930       0x20 build/FreeRTOS_IP.o
 .rodata.prvAllowIPPacket.str1.4
                0x000000000800b950       0x3c build/FreeRTOS_IP.o
 .rodata.xBroadcastMACAddress
                0x000000000800b98c        0x6 build/FreeRTOS_IP.o
                0x000000000800b98c                xBroadcastMACAddress
 *fill*         0x000000000800b992        0x2 
 .rodata.xNetworkDownEvent.8502
                0x000000000800b994        0x8 build/FreeRTOS_IP.o
 .rodata.vTCPNetStat.str1.4
                0x000000000800b99c       0xe8 build/FreeRTOS_Sockets.o
 .rodata.prvHandleListen.str1.4
                0x000000000800ba84       0x32 build/FreeRTOS_TCP_IP.o
                                         0x36 (size before relaxing)
 *fill*         0x000000000800bab6        0x2 
 .rodata.str1.4
                0x000000000800bab8       0xa1 build/FreeRTOS_TCP_IP.o
 *fill*         0x000000000800bb59        0x3 
 .rodata.pcStateNames.8836
                0x000000000800bb5c       0x34 build/FreeRTOS_TCP_IP.o
 .rodata.xBufferAllocFixedSize
                0x000000000800bb90        0x4 build/BufferAllocation_1.o
                0x000000000800bb90                xBufferAllocFixedSize
 .rodata.xPhyReset.str1.4
                0x000000000800bb94       0x59 build/phyHandling.o
 *fill*         0x000000000800bbed        0x3 
 .rodata.xPhyDiscover.str1.4
                0x000000000800bbf0        0xc build/phyHandling.o
 .rodata.xPhyConfigure.str1.4
                0x000000000800bbfc       0x49 build/phyHandling.o
 *fill*         0x000000000800bc45        0x3 
 .rodata.xPhyStartAutoNegotiation.str1.4
                0x000000000800bc48       0x8d build/phyHandling.o
 *fill*         0x000000000800bcd5        0x3 
 .rodata.xPhyCheckLinkStatus.str1.4
                0x000000000800bcd8       0x27 build/phyHandling.o
 *fill*         0x000000000800bcff        0x1 
 .rodata.prvPassEthMessages.str1.4
                0x000000000800bd00       0x32 build/NetworkInterface.o
 *fill*         0x000000000800bd32        0x2 
 .rodata.prvEthernetUpdateConfig.str1.4
                0x000000000800bd34       0x31 build/NetworkInterface.o
 *fill*         0x000000000800bd65        0x3 
 .rodata.prvEMACHandlerTask.str1.4
                0x000000000800bd68       0x1c build/NetworkInterface.o
 .rodata.xNetworkInterfaceInitialise.str1.4
                0x000000000800bd84       0x1d build/NetworkInterface.o
 *fill*         0x000000000800bda1        0x3 
 .rodata.xPHYProperties
                0x000000000800bda4        0x4 build/NetworkInterface.o
                0x000000000800bda4                xPHYProperties
 .rodata._svfprintf_r.str1.1
                0x000000000800bda8       0x11 /usr/local/Caskroom/gcc-arm-embedded/9-2019-q4-major/gcc-arm-none-eabi-9-2019-q4-major/bin/../lib/gcc/arm-none-eabi/9.2.1/../../../../arm-none-eabi/lib/thumb/v7e-m+fp/hard/libc_nano.a(lib_a-nano-svfprintf.o)
 .rodata._printf_i.str1.1
                0x000000000800bdb9       0x22 /usr/local/Caskroom/gcc-arm-embedded/9-2019-q4-major/gcc-arm-none-eabi-9-2019-q4-major/bin/../lib/gcc/arm-none-eabi/9.2.1/../../../../arm-none-eabi/lib/thumb/v7e-m+fp/hard/libc_nano.a(lib_a-nano-vfprintf_i.o)
                0x000000000800bddc                . = ALIGN (0x4)
 *fill*         0x000000000800bddb        0x1 

.ARM.extab
 *(.ARM.extab* .gnu.linkonce.armextab.*)

.ARM            0x000000000800bddc        0x8
                0x000000000800bddc                __exidx_start = .
 *(.ARM.exidx*)
 .ARM.exidx     0x000000000800bddc        0x8 /usr/local/Caskroom/gcc-arm-embedded/9-2019-q4-major/gcc-arm-none-eabi-9-2019-q4-major/bin/../lib/gcc/arm-none-eabi/9.2.1/thumb/v7e-m+fp/hard/libgcc.a(_udivmoddi4.o)
                0x000000000800bde4                __exidx_end = .

.rel.dyn        0x000000000800bde4        0x0
 .rel.iplt      0x000000000800bde4        0x0 /usr/local/Caskroom/gcc-arm-embedded/9-2019-q4-major/gcc-arm-none-eabi-9-2019-q4-major/bin/../lib/gcc/arm-none-eabi/9.2.1/thumb/v7e-m+fp/hard/crtbegin.o

.preinit_array  0x000000000800bde4        0x0
                0x000000000800bde4                PROVIDE (__preinit_array_start = .)
 *(.preinit_array*)
                0x000000000800bde4                PROVIDE (__preinit_array_end = .)

.init_array     0x000000000800bde4        0x4
                0x000000000800bde4                PROVIDE (__init_array_start = .)
 *(SORT_BY_NAME(.init_array.*))
 *(.init_array*)
 .init_array    0x000000000800bde4        0x4 /usr/local/Caskroom/gcc-arm-embedded/9-2019-q4-major/gcc-arm-none-eabi-9-2019-q4-major/bin/../lib/gcc/arm-none-eabi/9.2.1/thumb/v7e-m+fp/hard/crtbegin.o
                0x000000000800bde8                PROVIDE (__init_array_end = .)

.fini_array     0x000000000800bde8        0x4
                [!provide]                        PROVIDE (__fini_array_start = .)
 *(SORT_BY_NAME(.fini_array.*))
 *(.fini_array*)
 .fini_array    0x000000000800bde8        0x4 /usr/local/Caskroom/gcc-arm-embedded/9-2019-q4-major/gcc-arm-none-eabi-9-2019-q4-major/bin/../lib/gcc/arm-none-eabi/9.2.1/thumb/v7e-m+fp/hard/crtbegin.o
                [!provide]                        PROVIDE (__fini_array_end = .)
                0x000000000800bdec                _sidata = LOADADDR (.data)

.data           0x0000000020000000       0xb4 load address 0x000000000800bdec
                0x0000000020000000                . = ALIGN (0x4)
                0x0000000020000000                _sdata = .
 *(.data)
 *(.data*)
 .data.ucMACAddress
                0x0000000020000000        0x6 build/main.o
 *fill*         0x0000000020000006        0x2 
 .data.GPIO_PORT
                0x0000000020000008        0xc build/stm32f7xx_nucleo_144.o
                0x0000000020000008                GPIO_PORT
 .data.uwTickFreq
                0x0000000020000014        0x1 build/stm32f7xx_hal.o
                0x0000000020000014                uwTickFreq
 *fill*         0x0000000020000015        0x3 
 .data.uwTickPrio
                0x0000000020000018        0x4 build/stm32f7xx_hal.o
                0x0000000020000018                uwTickPrio
 .data.SystemCoreClock
                0x000000002000001c        0x4 build/system_stm32f7xx.o
                0x000000002000001c                SystemCoreClock
 .data.uxTopUsedPriority
                0x0000000020000020        0x4 build/tasks.o
                0x0000000020000020                uxTopUsedPriority
 .data.uxCriticalNesting
                0x0000000020000024        0x4 build/port.o
 .data.xPrintSocket
                0x0000000020000028        0x4 build/logging.o
                0x0000000020000028                xPrintSocket
 .data.xUARTLoggingUsed
                0x000000002000002c        0x4 build/logging.o
                0x000000002000002c                xUARTLoggingUsed
 .data.uxLastMinBufferCount.8758
                0x0000000020000030        0x4 build/FreeRTOS_IP.o
 .data.xDefaultPartUDPPacketHeader
                0x0000000020000034       0x18 build/FreeRTOS_UDP_IP.o
                0x0000000020000034                xDefaultPartUDPPacketHeader
 .data.uxLowestSemCount.12377
                0x000000002000004c        0x4 build/NetworkInterface.o
 .data._impure_ptr
                0x0000000020000050        0x4 /usr/local/Caskroom/gcc-arm-embedded/9-2019-q4-major/gcc-arm-none-eabi-9-2019-q4-major/bin/../lib/gcc/arm-none-eabi/9.2.1/../../../../arm-none-eabi/lib/thumb/v7e-m+fp/hard/libc_nano.a(lib_a-impure.o)
                0x0000000020000050                _impure_ptr
 .data.impure_data
                0x0000000020000054       0x60 /usr/local/Caskroom/gcc-arm-embedded/9-2019-q4-major/gcc-arm-none-eabi-9-2019-q4-major/bin/../lib/gcc/arm-none-eabi/9.2.1/../../../../arm-none-eabi/lib/thumb/v7e-m+fp/hard/libc_nano.a(lib_a-impure.o)
                0x00000000200000b4                . = ALIGN (0x4)
                0x00000000200000b4                _edata = .

.igot.plt       0x00000000200000b4        0x0 load address 0x000000000800bea0
 .igot.plt      0x00000000200000b4        0x0 /usr/local/Caskroom/gcc-arm-embedded/9-2019-q4-major/gcc-arm-none-eabi-9-2019-q4-major/bin/../lib/gcc/arm-none-eabi/9.2.1/thumb/v7e-m+fp/hard/crtbegin.o

.first_data     0x00000000200000c0    0x16940 load address 0x000000000800bea0
 .first_data    0x00000000200000c0    0x16940 build/NetworkInterface.o
                0x00000000200000c0                DMATxDscrTab
                0x0000000020000160                DMARxDscrTab
                0x0000000020016a00                . = ALIGN (0x4)

.bss            0x0000000020016a00     0xe1e8 load address 0x00000000080227e0
                0x0000000020016a00                _sbss = .
                0x0000000020016a00                __bss_start__ = _sbss
 *(.bss)
 .bss           0x0000000020016a00       0x1c /usr/local/Caskroom/gcc-arm-embedded/9-2019-q4-major/gcc-arm-none-eabi-9-2019-q4-major/bin/../lib/gcc/arm-none-eabi/9.2.1/thumb/v7e-m+fp/hard/crtbegin.o
 *(.bss*)
 .bss.xTasksAlreadyCreated.11284
                0x0000000020016a1c        0x4 build/freertos.o
 .bss.pxCurrentTCB
                0x0000000020016a20        0x4 build/tasks.o
                0x0000000020016a20                pxCurrentTCB
 .bss.pxDelayedTaskList
                0x0000000020016a24        0x4 build/tasks.o
 .bss.pxOverflowDelayedTaskList
                0x0000000020016a28        0x4 build/tasks.o
 .bss.pxReadyTasksLists
                0x0000000020016a2c      0x460 build/tasks.o
 .bss.ulTaskSwitchedInTime
                0x0000000020016e8c        0x4 build/tasks.o
 .bss.ulTotalRunTime
                0x0000000020016e90        0x4 build/tasks.o
 .bss.uxCurrentNumberOfTasks
                0x0000000020016e94        0x4 build/tasks.o
 .bss.uxDeletedTasksWaitingCleanUp
                0x0000000020016e98        0x4 build/tasks.o
 .bss.uxSchedulerSuspended
                0x0000000020016e9c        0x4 build/tasks.o
 .bss.uxTaskNumber
                0x0000000020016ea0        0x4 build/tasks.o
 .bss.uxTopReadyPriority
                0x0000000020016ea4        0x4 build/tasks.o
 .bss.xDelayedTaskList1
                0x0000000020016ea8       0x14 build/tasks.o
 .bss.xDelayedTaskList2
                0x0000000020016ebc       0x14 build/tasks.o
 .bss.xNextTaskUnblockTime
                0x0000000020016ed0        0x4 build/tasks.o
 .bss.xNumOfOverflows
                0x0000000020016ed4        0x4 build/tasks.o
 .bss.xPendedTicks
                0x0000000020016ed8        0x4 build/tasks.o
 .bss.xPendingReadyList
                0x0000000020016edc       0x14 build/tasks.o
 .bss.xSchedulerRunning
                0x0000000020016ef0        0x4 build/tasks.o
 .bss.xSuspendedTaskList
                0x0000000020016ef4       0x14 build/tasks.o
 .bss.xTasksWaitingTermination
                0x0000000020016f08       0x14 build/tasks.o
 .bss.xTickCount
                0x0000000020016f1c        0x4 build/tasks.o
 .bss.xYieldPending
                0x0000000020016f20        0x4 build/tasks.o
 .bss.pxCurrentTimerList
                0x0000000020016f24        0x4 build/timers.o
 .bss.pxOverflowTimerList
                0x0000000020016f28        0x4 build/timers.o
 .bss.ucStaticTimerQueueStorage.6985
                0x0000000020016f2c       0xa0 build/timers.o
 .bss.xActiveTimerList1
                0x0000000020016fcc       0x14 build/timers.o
 .bss.xActiveTimerList2
                0x0000000020016fe0       0x14 build/timers.o
 .bss.xLastTime.6941
                0x0000000020016ff4        0x4 build/timers.o
 .bss.xStaticTimerQueue.6984
                0x0000000020016ff8       0x50 build/timers.o
 .bss.xTimerQueue
                0x0000000020017048        0x4 build/timers.o
 .bss.xTimerTaskHandle
                0x000000002001704c        0x4 build/timers.o
 .bss.pxEnd     0x0000000020017050        0x4 build/heap_4.o
 .bss.ucHeap    0x0000000020017054     0x8000 build/heap_4.o
 .bss.xBlockAllocatedBit
                0x000000002001f054        0x4 build/heap_4.o
 .bss.xFreeBytesRemaining
                0x000000002001f058        0x4 build/heap_4.o
 .bss.xMinimumEverFreeBytesRemaining
                0x000000002001f05c        0x4 build/heap_4.o
 .bss.xNumberOfSuccessfulAllocations
                0x000000002001f060        0x4 build/heap_4.o
 .bss.xNumberOfSuccessfulFrees
                0x000000002001f064        0x4 build/heap_4.o
 .bss.xStart    0x000000002001f068        0x8 build/heap_4.o
 .bss.ucMaxSysCallPriority
                0x000000002001f070        0x1 build/port.o
 *fill*         0x000000002001f071        0x3 
 .bss.ulMaxPRIGROUPValue
                0x000000002001f074        0x4 build/port.o
 .bss.Idle_Stack
                0x000000002001f078      0x200 build/cmsis_os2.o
 .bss.Idle_TCB  0x000000002001f278       0x64 build/cmsis_os2.o
 .bss.KernelState
                0x000000002001f2dc        0x4 build/cmsis_os2.o
 .bss.Timer_Stack
                0x000000002001f2e0      0x400 build/cmsis_os2.o
 .bss.Timer_TCB
                0x000000002001f6e0       0x64 build/cmsis_os2.o
 .bss.mid_MsgQueue
                0x000000002001f744        0x4 build/logging.o
                0x000000002001f744                mid_MsgQueue
 .bss.xSWOLoggingUsed
                0x000000002001f748        0x4 build/logging.o
                0x000000002001f748                xSWOLoggingUsed
 .bss.xUDPLoggingUsed
                0x000000002001f74c        0x4 build/logging.o
                0x000000002001f74c                xUDPLoggingUsed
 .bss.xARPCache
                0x000000002001f750       0x48 build/FreeRTOS_ARP.o
 .bss.xLastGratuitousARPTime
                0x000000002001f798        0x4 build/FreeRTOS_ARP.o
 .bss.ucNetworkEventQueueStorageArea.8553
                0x000000002001f79c      0x208 build/FreeRTOS_IP.o
 .bss.usPacketIdentifier
                0x000000002001f9a4        0x2 build/FreeRTOS_IP.o
                0x000000002001f9a4                usPacketIdentifier
 *fill*         0x000000002001f9a6        0x2 
 .bss.uxMinLastSize.8759
                0x000000002001f9a8        0x4 build/FreeRTOS_IP.o
 .bss.xARPTimer
                0x000000002001f9ac       0x14 build/FreeRTOS_IP.o
 .bss.xCallEventHook.8604
                0x000000002001f9c0        0x4 build/FreeRTOS_IP.o
 .bss.xCount.8643
                0x000000002001f9c4        0x4 build/FreeRTOS_IP.o
 .bss.xDefaultAddressing
                0x000000002001f9c8       0x14 build/FreeRTOS_IP.o
                0x000000002001f9c8                xDefaultAddressing
 .bss.xIPTaskBuffer.8555
                0x000000002001f9dc       0x64 build/FreeRTOS_IP.o
 .bss.xIPTaskHandle
                0x000000002001fa40        0x4 build/FreeRTOS_IP.o
 .bss.xIPTaskInitialised
                0x000000002001fa44        0x4 build/FreeRTOS_IP.o
 .bss.xIPTaskStack.8556
                0x000000002001fa48      0xa00 build/FreeRTOS_IP.o
 .bss.xNetworkAddressing
                0x0000000020020448       0x14 build/FreeRTOS_IP.o
                0x0000000020020448                xNetworkAddressing
 .bss.xNetworkDownEventPending
                0x000000002002045c        0x4 build/FreeRTOS_IP.o
 .bss.xNetworkEventQueue
                0x0000000020020460        0x4 build/FreeRTOS_IP.o
                0x0000000020020460                xNetworkEventQueue
 .bss.xNetworkEventStaticQueue.8552
                0x0000000020020464       0x50 build/FreeRTOS_IP.o
 .bss.xNetworkUp
                0x00000000200204b4        0x4 build/FreeRTOS_IP.o
 .bss.xProcessedTCPMessage
                0x00000000200204b8        0x4 build/FreeRTOS_IP.o
 .bss.xTCPTimer
                0x00000000200204bc       0x14 build/FreeRTOS_IP.o
 .bss.xLastTime.8772
                0x00000000200204d0        0x4 build/FreeRTOS_Sockets.o
 .bss.xPreviousSocket.8465
                0x00000000200204d4        0x4 build/FreeRTOS_TCP_IP.o
 .bss.xSegmentList
                0x00000000200204d8       0x14 build/FreeRTOS_TCP_WIN.o
 .bss.xTCPSegments
                0x00000000200204ec        0x4 build/FreeRTOS_TCP_WIN.o
 .bss.uxMinimumFreeNetworkBuffers
                0x00000000200204f0        0x4 build/BufferAllocation_1.o
 .bss.xFreeBuffersList
                0x00000000200204f4       0x14 build/BufferAllocation_1.o
 .bss.xNetworkBufferSemaphore
                0x0000000020020508        0x4 build/BufferAllocation_1.o
 .bss.xNetworkBufferSemaphoreBuffer.7478
                0x000000002002050c       0x50 build/BufferAllocation_1.o
 .bss.xNetworkBuffers
                0x000000002002055c      0x870 build/BufferAllocation_1.o
 .bss.DMATxDescToClear
                0x0000000020020dcc        0x4 build/NetworkInterface.o
 .bss.ulISREvents
                0x0000000020020dd0        0x4 build/NetworkInterface.o
 .bss.xEMACTaskHandle
                0x0000000020020dd4        0x4 build/NetworkInterface.o
 .bss.xETH      0x0000000020020dd8       0x48 build/NetworkInterface.o
 .bss.xMacInitStatus
                0x0000000020020e20        0x1 build/NetworkInterface.o
 *fill*         0x0000000020020e21        0x3 
 .bss.xPhyObject
                0x0000000020020e24       0x40 build/NetworkInterface.o
 .bss.xTXDescriptorSemaphore
                0x0000000020020e64        0x4 build/NetworkInterface.o
 .bss.__malloc_free_list
                0x0000000020020e68        0x4 /usr/local/Caskroom/gcc-arm-embedded/9-2019-q4-major/gcc-arm-none-eabi-9-2019-q4-major/bin/../lib/gcc/arm-none-eabi/9.2.1/../../../../arm-none-eabi/lib/thumb/v7e-m+fp/hard/libc_nano.a(lib_a-nano-mallocr.o)
                0x0000000020020e68                __malloc_free_list
 .bss.__malloc_sbrk_start
                0x0000000020020e6c        0x4 /usr/local/Caskroom/gcc-arm-embedded/9-2019-q4-major/gcc-arm-none-eabi-9-2019-q4-major/bin/../lib/gcc/arm-none-eabi/9.2.1/../../../../arm-none-eabi/lib/thumb/v7e-m+fp/hard/libc_nano.a(lib_a-nano-mallocr.o)
                0x0000000020020e6c                __malloc_sbrk_start
 .bss.heap_end.5507
                0x0000000020020e70        0x4 /usr/local/Caskroom/gcc-arm-embedded/9-2019-q4-major/gcc-arm-none-eabi-9-2019-q4-major/bin/../lib/gcc/arm-none-eabi/9.2.1/../../../../arm-none-eabi/lib/thumb/v7e-m+fp/hard/libnosys.a(sbrk.o)
 *(COMMON)
 COMMON         0x0000000020020e74       0x18 build/main.o
                0x0000000020020e74                tid_startup
                0x0000000020020e78                tid_led
                0x0000000020020e7c                hrng
 COMMON         0x0000000020020e8c       0x50 build/freertos.o
                0x0000000020020e8c                ulHighFrequencyTimerTicks
                0x0000000020020e90                htim13
 COMMON         0x0000000020020edc        0x4 build/stm32f7xx_hal.o
                0x0000000020020edc                uwTick
 COMMON         0x0000000020020ee0       0x40 build/queue.o
                0x0000000020020ee0                xQueueRegistry
 COMMON         0x0000000020020f20       0x90 build/logging.o
                0x0000000020020f20                huart
                0x0000000020020fa4                tid_logger
                0x0000000020020fa8                xPrintUDPAddress
 COMMON         0x0000000020020fb0       0x28 build/FreeRTOS_Sockets.o
                0x0000000020020fb0                xBoundTCPSocketsList
                0x0000000020020fc4                xBoundUDPSocketsList
 COMMON         0x0000000020020fd8     0x3c00 build/NetworkInterface.o
                0x0000000020020fd8                Rx_Buff
                0x0000000020022dd8                Tx_Buff
 COMMON         0x0000000020024bd8        0x4 /usr/local/Caskroom/gcc-arm-embedded/9-2019-q4-major/gcc-arm-none-eabi-9-2019-q4-major/bin/../lib/gcc/arm-none-eabi/9.2.1/../../../../arm-none-eabi/lib/thumb/v7e-m+fp/hard/libc_nano.a(lib_a-reent.o)
                0x0000000020024bd8                errno
 COMMON         0x0000000020024bdc        0x9 /usr/local/Caskroom/gcc-arm-embedded/9-2019-q4-major/gcc-arm-none-eabi-9-2019-q4-major/bin/../lib/gcc/arm-none-eabi/9.2.1/../../../../arm-none-eabi/lib/thumb/v7e-m+fp/hard/libc_nano.a(lib_a-lock.o)
                0x0000000020024bdc                __lock___atexit_recursive_mutex
                0x0000000020024bdd                __lock___arc4random_mutex
                0x0000000020024bde                __lock___env_recursive_mutex
                0x0000000020024bdf                __lock___sinit_recursive_mutex
                0x0000000020024be0                __lock___malloc_recursive_mutex
                0x0000000020024be1                __lock___at_quick_exit_mutex
                0x0000000020024be2                __lock___dd_hash_mutex
                0x0000000020024be3                __lock___tz_mutex
                0x0000000020024be4                __lock___sfp_recursive_mutex
                0x0000000020024be8                . = ALIGN (0x4)
 *fill*         0x0000000020024be5        0x3 
                0x0000000020024be8                _ebss = .
                0x0000000020024be8                __bss_end__ = _ebss

._user_heap_stack
                0x0000000020024be8      0x600 load address 0x00000000080227e0
                0x0000000020024be8                . = ALIGN (0x8)
                0x0000000020024be8                PROVIDE (end = .)
                [!provide]                        PROVIDE (_end = .)
                0x0000000020024de8                . = (. + _Min_Heap_Size)
 *fill*         0x0000000020024be8      0x200 
                0x00000000200251e8                . = (. + _Min_Stack_Size)
 *fill*         0x0000000020024de8      0x400 
                0x00000000200251e8                . = ALIGN (0x8)

/DISCARD/
 libc.a(*)
 libm.a(*)
 libgcc.a(*)

.ARM.attributes
                0x0000000000000000       0x30
 *(.ARM.attributes)
 .ARM.attributes
                0x0000000000000000       0x1e /usr/local/Caskroom/gcc-arm-embedded/9-2019-q4-major/gcc-arm-none-eabi-9-2019-q4-major/bin/../lib/gcc/arm-none-eabi/9.2.1/thumb/v7e-m+fp/hard/crti.o
 .ARM.attributes
                0x000000000000001e       0x34 /usr/local/Caskroom/gcc-arm-embedded/9-2019-q4-major/gcc-arm-none-eabi-9-2019-q4-major/bin/../lib/gcc/arm-none-eabi/9.2.1/thumb/v7e-m+fp/hard/crtbegin.o
 .ARM.attributes
                0x0000000000000052       0x34 build/main.o
 .ARM.attributes
                0x0000000000000086       0x34 build/freertos.o
 .ARM.attributes
                0x00000000000000ba       0x34 build/stm32f7xx_it.o
 .ARM.attributes
                0x00000000000000ee       0x34 build/stm32f7xx_hal_msp.o
 .ARM.attributes
                0x0000000000000122       0x34 build/stm32f7xx_nucleo_144.o
 .ARM.attributes
                0x0000000000000156       0x34 build/stm32f7xx_hal.o
 .ARM.attributes
                0x000000000000018a       0x34 build/stm32f7xx_hal_cortex.o
 .ARM.attributes
                0x00000000000001be       0x34 build/stm32f7xx_hal_rcc.o
 .ARM.attributes
                0x00000000000001f2       0x34 build/stm32f7xx_hal_rcc_ex.o
 .ARM.attributes
                0x0000000000000226       0x34 build/stm32f7xx_hal_rng.o
 .ARM.attributes
                0x000000000000025a       0x34 build/stm32f7xx_hal_tim.o
 .ARM.attributes
                0x000000000000028e       0x34 build/stm32f7xx_hal_tim_ex.o
 .ARM.attributes
                0x00000000000002c2       0x34 build/stm32f7xx_hal_pwr.o
 .ARM.attributes
                0x00000000000002f6       0x34 build/stm32f7xx_hal_pwr_ex.o
 .ARM.attributes
                0x000000000000032a       0x34 build/stm32f7xx_hal_uart.o
 .ARM.attributes
                0x000000000000035e       0x34 build/stm32f7xx_hal_gpio.o
 .ARM.attributes
                0x0000000000000392       0x34 build/system_stm32f7xx.o
 .ARM.attributes
                0x00000000000003c6       0x34 build/event_groups.o
 .ARM.attributes
                0x00000000000003fa       0x34 build/list.o
 .ARM.attributes
                0x000000000000042e       0x34 build/queue.o
 .ARM.attributes
                0x0000000000000462       0x34 build/tasks.o
 .ARM.attributes
                0x0000000000000496       0x34 build/timers.o
 .ARM.attributes
                0x00000000000004ca       0x34 build/heap_4.o
 .ARM.attributes
                0x00000000000004fe       0x34 build/port.o
 .ARM.attributes
                0x0000000000000532       0x34 build/cmsis_os2.o
 .ARM.attributes
                0x0000000000000566       0x34 build/logging.o
 .ARM.attributes
                0x000000000000059a       0x34 build/FreeRTOS_ARP.o
 .ARM.attributes
                0x00000000000005ce       0x34 build/FreeRTOS_IP.o
 .ARM.attributes
                0x0000000000000602       0x34 build/FreeRTOS_Sockets.o
 .ARM.attributes
                0x0000000000000636       0x34 build/FreeRTOS_Stream_Buffer.o
 .ARM.attributes
                0x000000000000066a       0x34 build/FreeRTOS_TCP_IP.o
 .ARM.attributes
                0x000000000000069e       0x34 build/FreeRTOS_TCP_WIN.o
 .ARM.attributes
                0x00000000000006d2       0x34 build/FreeRTOS_UDP_IP.o
 .ARM.attributes
                0x0000000000000706       0x34 build/BufferAllocation_1.o
 .ARM.attributes
                0x000000000000073a       0x34 build/phyHandling.o
 .ARM.attributes
                0x000000000000076e       0x34 build/NetworkInterface.o
 .ARM.attributes
                0x00000000000007a2       0x34 build/stm32fxx_hal_eth.o
 .ARM.attributes
                0x00000000000007d6       0x21 build/startup_stm32f746xx.o
 .ARM.attributes
                0x00000000000007f7       0x32 /usr/local/Caskroom/gcc-arm-embedded/9-2019-q4-major/gcc-arm-none-eabi-9-2019-q4-major/bin/../lib/gcc/arm-none-eabi/9.2.1/../../../../arm-none-eabi/lib/thumb/v7e-m+fp/hard/libc_nano.a(lib_a-impure.o)
 .ARM.attributes
                0x0000000000000829       0x34 /usr/local/Caskroom/gcc-arm-embedded/9-2019-q4-major/gcc-arm-none-eabi-9-2019-q4-major/bin/../lib/gcc/arm-none-eabi/9.2.1/../../../../arm-none-eabi/lib/thumb/v7e-m+fp/hard/libc_nano.a(lib_a-init.o)
 .ARM.attributes
                0x000000000000085d       0x34 /usr/local/Caskroom/gcc-arm-embedded/9-2019-q4-major/gcc-arm-none-eabi-9-2019-q4-major/bin/../lib/gcc/arm-none-eabi/9.2.1/../../../../arm-none-eabi/lib/thumb/v7e-m+fp/hard/libc_nano.a(lib_a-memcmp.o)
 .ARM.attributes
                0x0000000000000891       0x34 /usr/local/Caskroom/gcc-arm-embedded/9-2019-q4-major/gcc-arm-none-eabi-9-2019-q4-major/bin/../lib/gcc/arm-none-eabi/9.2.1/../../../../arm-none-eabi/lib/thumb/v7e-m+fp/hard/libc_nano.a(lib_a-memcpy-stub.o)
 .ARM.attributes
                0x00000000000008c5       0x34 /usr/local/Caskroom/gcc-arm-embedded/9-2019-q4-major/gcc-arm-none-eabi-9-2019-q4-major/bin/../lib/gcc/arm-none-eabi/9.2.1/../../../../arm-none-eabi/lib/thumb/v7e-m+fp/hard/libc_nano.a(lib_a-memmove.o)
 .ARM.attributes
                0x00000000000008f9       0x34 /usr/local/Caskroom/gcc-arm-embedded/9-2019-q4-major/gcc-arm-none-eabi-9-2019-q4-major/bin/../lib/gcc/arm-none-eabi/9.2.1/../../../../arm-none-eabi/lib/thumb/v7e-m+fp/hard/libc_nano.a(lib_a-memset.o)
 .ARM.attributes
                0x000000000000092d       0x34 /usr/local/Caskroom/gcc-arm-embedded/9-2019-q4-major/gcc-arm-none-eabi-9-2019-q4-major/bin/../lib/gcc/arm-none-eabi/9.2.1/../../../../arm-none-eabi/lib/thumb/v7e-m+fp/hard/libc_nano.a(lib_a-snprintf.o)
 .ARM.attributes
                0x0000000000000961       0x34 /usr/local/Caskroom/gcc-arm-embedded/9-2019-q4-major/gcc-arm-none-eabi-9-2019-q4-major/bin/../lib/gcc/arm-none-eabi/9.2.1/../../../../arm-none-eabi/lib/thumb/v7e-m+fp/hard/libc_nano.a(lib_a-vsnprintf.o)
 .ARM.attributes
                0x0000000000000995       0x34 /usr/local/Caskroom/gcc-arm-embedded/9-2019-q4-major/gcc-arm-none-eabi-9-2019-q4-major/bin/../lib/gcc/arm-none-eabi/9.2.1/../../../../arm-none-eabi/lib/thumb/v7e-m+fp/hard/libc_nano.a(lib_a-nano-svfprintf.o)
 .ARM.attributes
                0x00000000000009c9       0x34 /usr/local/Caskroom/gcc-arm-embedded/9-2019-q4-major/gcc-arm-none-eabi-9-2019-q4-major/bin/../lib/gcc/arm-none-eabi/9.2.1/../../../../arm-none-eabi/lib/thumb/v7e-m+fp/hard/libc_nano.a(lib_a-nano-vfprintf_i.o)
 .ARM.attributes
                0x00000000000009fd       0x1c /usr/local/Caskroom/gcc-arm-embedded/9-2019-q4-major/gcc-arm-none-eabi-9-2019-q4-major/bin/../lib/gcc/arm-none-eabi/9.2.1/../../../../arm-none-eabi/lib/thumb/v7e-m+fp/hard/libc_nano.a(lib_a-memchr.o)
 .ARM.attributes
                0x0000000000000a19       0x34 /usr/local/Caskroom/gcc-arm-embedded/9-2019-q4-major/gcc-arm-none-eabi-9-2019-q4-major/bin/../lib/gcc/arm-none-eabi/9.2.1/../../../../arm-none-eabi/lib/thumb/v7e-m+fp/hard/libc_nano.a(lib_a-nano-freer.o)
 .ARM.attributes
                0x0000000000000a4d       0x34 /usr/local/Caskroom/gcc-arm-embedded/9-2019-q4-major/gcc-arm-none-eabi-9-2019-q4-major/bin/../lib/gcc/arm-none-eabi/9.2.1/../../../../arm-none-eabi/lib/thumb/v7e-m+fp/hard/libc_nano.a(lib_a-nano-mallocr.o)
 .ARM.attributes
                0x0000000000000a81       0x34 /usr/local/Caskroom/gcc-arm-embedded/9-2019-q4-major/gcc-arm-none-eabi-9-2019-q4-major/bin/../lib/gcc/arm-none-eabi/9.2.1/../../../../arm-none-eabi/lib/thumb/v7e-m+fp/hard/libc_nano.a(lib_a-nano-reallocr.o)
 .ARM.attributes
                0x0000000000000ab5       0x34 /usr/local/Caskroom/gcc-arm-embedded/9-2019-q4-major/gcc-arm-none-eabi-9-2019-q4-major/bin/../lib/gcc/arm-none-eabi/9.2.1/../../../../arm-none-eabi/lib/thumb/v7e-m+fp/hard/libc_nano.a(lib_a-sbrkr.o)
 .ARM.attributes
                0x0000000000000ae9       0x34 /usr/local/Caskroom/gcc-arm-embedded/9-2019-q4-major/gcc-arm-none-eabi-9-2019-q4-major/bin/../lib/gcc/arm-none-eabi/9.2.1/../../../../arm-none-eabi/lib/thumb/v7e-m+fp/hard/libc_nano.a(lib_a-mlock.o)
 .ARM.attributes
                0x0000000000000b1d       0x34 /usr/local/Caskroom/gcc-arm-embedded/9-2019-q4-major/gcc-arm-none-eabi-9-2019-q4-major/bin/../lib/gcc/arm-none-eabi/9.2.1/../../../../arm-none-eabi/lib/thumb/v7e-m+fp/hard/libc_nano.a(lib_a-nano-msizer.o)
 .ARM.attributes
                0x0000000000000b51       0x34 /usr/local/Caskroom/gcc-arm-embedded/9-2019-q4-major/gcc-arm-none-eabi-9-2019-q4-major/bin/../lib/gcc/arm-none-eabi/9.2.1/../../../../arm-none-eabi/lib/thumb/v7e-m+fp/hard/libc_nano.a(lib_a-reent.o)
 .ARM.attributes
                0x0000000000000b85       0x34 /usr/local/Caskroom/gcc-arm-embedded/9-2019-q4-major/gcc-arm-none-eabi-9-2019-q4-major/bin/../lib/gcc/arm-none-eabi/9.2.1/../../../../arm-none-eabi/lib/thumb/v7e-m+fp/hard/libc_nano.a(lib_a-lock.o)
 .ARM.attributes
                0x0000000000000bb9       0x34 /usr/local/Caskroom/gcc-arm-embedded/9-2019-q4-major/gcc-arm-none-eabi-9-2019-q4-major/bin/../lib/gcc/arm-none-eabi/9.2.1/../../../../arm-none-eabi/lib/thumb/v7e-m+fp/hard/libnosys.a(sbrk.o)
 .ARM.attributes
                0x0000000000000bed       0x1e /usr/local/Caskroom/gcc-arm-embedded/9-2019-q4-major/gcc-arm-none-eabi-9-2019-q4-major/bin/../lib/gcc/arm-none-eabi/9.2.1/thumb/v7e-m+fp/hard/libgcc.a(_aeabi_uldivmod.o)
 .ARM.attributes
                0x0000000000000c0b       0x34 /usr/local/Caskroom/gcc-arm-embedded/9-2019-q4-major/gcc-arm-none-eabi-9-2019-q4-major/bin/../lib/gcc/arm-none-eabi/9.2.1/thumb/v7e-m+fp/hard/libgcc.a(_udivmoddi4.o)
 .ARM.attributes
                0x0000000000000c3f       0x1e /usr/local/Caskroom/gcc-arm-embedded/9-2019-q4-major/gcc-arm-none-eabi-9-2019-q4-major/bin/../lib/gcc/arm-none-eabi/9.2.1/thumb/v7e-m+fp/hard/libgcc.a(_dvmd_tls.o)
 .ARM.attributes
                0x0000000000000c5d       0x1e /usr/local/Caskroom/gcc-arm-embedded/9-2019-q4-major/gcc-arm-none-eabi-9-2019-q4-major/bin/../lib/gcc/arm-none-eabi/9.2.1/thumb/v7e-m+fp/hard/crtn.o
OUTPUT(build/firmware.elf elf32-littlearm)

.debug_info     0x0000000000000000    0x48b0d
 .debug_info    0x0000000000000000     0x1e88 build/main.o
 .debug_info    0x0000000000001e88     0x1857 build/freertos.o
 .debug_info    0x00000000000036df     0x13e3 build/stm32f7xx_it.o
 .debug_info    0x0000000000004ac2     0x2dd6 build/stm32f7xx_hal_msp.o
 .debug_info    0x0000000000007898      0xcc7 build/stm32f7xx_nucleo_144.o
 .debug_info    0x000000000000855f      0xc81 build/stm32f7xx_hal.o
 .debug_info    0x00000000000091e0     0x14ba build/stm32f7xx_hal_cortex.o
 .debug_info    0x000000000000a69a      0xd06 build/stm32f7xx_hal_rcc.o
 .debug_info    0x000000000000b3a0      0xa39 build/stm32f7xx_hal_rcc_ex.o
 .debug_info    0x000000000000bdd9      0x6bb build/stm32f7xx_hal_rng.o
 .debug_info    0x000000000000c494     0x40dc build/stm32f7xx_hal_tim.o
 .debug_info    0x0000000000010570     0x1dcd build/stm32f7xx_hal_tim_ex.o
 .debug_info    0x000000000001233d      0xb8f build/stm32f7xx_hal_pwr.o
 .debug_info    0x0000000000012ecc      0xbfd build/stm32f7xx_hal_pwr_ex.o
 .debug_info    0x0000000000013ac9     0x236e build/stm32f7xx_hal_uart.o
 .debug_info    0x0000000000015e37      0x95d build/stm32f7xx_hal_gpio.o
 .debug_info    0x0000000000016794      0x88b build/system_stm32f7xx.o
 .debug_info    0x000000000001701f     0x19c2 build/event_groups.o
 .debug_info    0x00000000000189e1      0xca4 build/list.o
 .debug_info    0x0000000000019685     0x338a build/queue.o
 .debug_info    0x000000000001ca0f     0x43cb build/tasks.o
 .debug_info    0x0000000000020dda     0x24d6 build/timers.o
 .debug_info    0x00000000000232b0      0xfa1 build/heap_4.o
 .debug_info    0x0000000000024251      0x589 build/port.o
 .debug_info    0x00000000000247da     0x57c4 build/cmsis_os2.o
 .debug_info    0x0000000000029f9e     0x1f25 build/logging.o
 .debug_info    0x000000000002bec3     0x1b93 build/FreeRTOS_ARP.o
 .debug_info    0x000000000002da56     0x4b8d build/FreeRTOS_IP.o
 .debug_info    0x00000000000325e3     0x4f0d build/FreeRTOS_Sockets.o
 .debug_info    0x00000000000374f0     0x14fb build/FreeRTOS_Stream_Buffer.o
 .debug_info    0x00000000000389eb     0x456c build/FreeRTOS_TCP_IP.o
 .debug_info    0x000000000003cf57     0x2879 build/FreeRTOS_TCP_WIN.o
 .debug_info    0x000000000003f7d0     0x1d9a build/FreeRTOS_UDP_IP.o
 .debug_info    0x000000000004156a     0x1600 build/BufferAllocation_1.o
 .debug_info    0x0000000000042b6a     0x16a0 build/phyHandling.o
 .debug_info    0x000000000004420a     0x2d93 build/NetworkInterface.o
 .debug_info    0x0000000000046f9d     0x1b4e build/stm32fxx_hal_eth.o
 .debug_info    0x0000000000048aeb       0x22 build/startup_stm32f746xx.o

.debug_abbrev   0x0000000000000000     0x7955
 .debug_abbrev  0x0000000000000000      0x41c build/main.o
 .debug_abbrev  0x000000000000041c      0x320 build/freertos.o
 .debug_abbrev  0x000000000000073c      0x245 build/stm32f7xx_it.o
 .debug_abbrev  0x0000000000000981      0x327 build/stm32f7xx_hal_msp.o
 .debug_abbrev  0x0000000000000ca8      0x283 build/stm32f7xx_nucleo_144.o
 .debug_abbrev  0x0000000000000f2b      0x21c build/stm32f7xx_hal.o
 .debug_abbrev  0x0000000000001147      0x3a8 build/stm32f7xx_hal_cortex.o
 .debug_abbrev  0x00000000000014ef      0x294 build/stm32f7xx_hal_rcc.o
 .debug_abbrev  0x0000000000001783      0x203 build/stm32f7xx_hal_rcc_ex.o
 .debug_abbrev  0x0000000000001986      0x220 build/stm32f7xx_hal_rng.o
 .debug_abbrev  0x0000000000001ba6      0x2af build/stm32f7xx_hal_tim.o
 .debug_abbrev  0x0000000000001e55      0x2ab build/stm32f7xx_hal_tim_ex.o
 .debug_abbrev  0x0000000000002100      0x1f5 build/stm32f7xx_hal_pwr.o
 .debug_abbrev  0x00000000000022f5      0x1de build/stm32f7xx_hal_pwr_ex.o
 .debug_abbrev  0x00000000000024d3      0x2b7 build/stm32f7xx_hal_uart.o
 .debug_abbrev  0x000000000000278a      0x258 build/stm32f7xx_hal_gpio.o
 .debug_abbrev  0x00000000000029e2      0x159 build/system_stm32f7xx.o
 .debug_abbrev  0x0000000000002b3b      0x3dd build/event_groups.o
 .debug_abbrev  0x0000000000002f18      0x245 build/list.o
 .debug_abbrev  0x000000000000315d      0x41a build/queue.o
 .debug_abbrev  0x0000000000003577      0x46b build/tasks.o
 .debug_abbrev  0x00000000000039e2      0x3e7 build/timers.o
 .debug_abbrev  0x0000000000003dc9      0x381 build/heap_4.o
 .debug_abbrev  0x000000000000414a      0x29d build/port.o
 .debug_abbrev  0x00000000000043e7      0x4ee build/cmsis_os2.o
 .debug_abbrev  0x00000000000048d5      0x42c build/logging.o
 .debug_abbrev  0x0000000000004d01      0x3eb build/FreeRTOS_ARP.o
 .debug_abbrev  0x00000000000050ec      0x4fa build/FreeRTOS_IP.o
 .debug_abbrev  0x00000000000055e6      0x4ee build/FreeRTOS_Sockets.o
 .debug_abbrev  0x0000000000005ad4      0x306 build/FreeRTOS_Stream_Buffer.o
 .debug_abbrev  0x0000000000005dda      0x43a build/FreeRTOS_TCP_IP.o
 .debug_abbrev  0x0000000000006214      0x4c2 build/FreeRTOS_TCP_WIN.o
 .debug_abbrev  0x00000000000066d6      0x39e build/FreeRTOS_UDP_IP.o
 .debug_abbrev  0x0000000000006a74      0x421 build/BufferAllocation_1.o
 .debug_abbrev  0x0000000000006e95      0x2fb build/phyHandling.o
 .debug_abbrev  0x0000000000007190      0x4a2 build/NetworkInterface.o
 .debug_abbrev  0x0000000000007632      0x311 build/stm32fxx_hal_eth.o
 .debug_abbrev  0x0000000000007943       0x12 build/startup_stm32f746xx.o

.debug_loc      0x0000000000000000    0x2b5ab
 .debug_loc     0x0000000000000000      0x1e9 build/main.o
 .debug_loc     0x00000000000001e9      0x312 build/freertos.o
 .debug_loc     0x00000000000004fb       0x40 build/stm32f7xx_it.o
 .debug_loc     0x000000000000053b      0x2e7 build/stm32f7xx_hal_msp.o
 .debug_loc     0x0000000000000822      0x2dc build/stm32f7xx_nucleo_144.o
 .debug_loc     0x0000000000000afe      0x1e1 build/stm32f7xx_hal.o
 .debug_loc     0x0000000000000cdf      0x7c4 build/stm32f7xx_hal_cortex.o
 .debug_loc     0x00000000000014a3      0x7c3 build/stm32f7xx_hal_rcc.o
 .debug_loc     0x0000000000001c66      0x91a build/stm32f7xx_hal_rcc_ex.o
 .debug_loc     0x0000000000002580      0x474 build/stm32f7xx_hal_rng.o
 .debug_loc     0x00000000000029f4     0x56f4 build/stm32f7xx_hal_tim.o
 .debug_loc     0x00000000000080e8     0x2309 build/stm32f7xx_hal_tim_ex.o
 .debug_loc     0x000000000000a3f1       0xa5 build/stm32f7xx_hal_pwr.o
 .debug_loc     0x000000000000a496      0x3ca build/stm32f7xx_hal_pwr_ex.o
 .debug_loc     0x000000000000a860     0x21d3 build/stm32f7xx_hal_uart.o
 .debug_loc     0x000000000000ca33      0x5dc build/stm32f7xx_hal_gpio.o
 .debug_loc     0x000000000000d00f      0x16c build/system_stm32f7xx.o
 .debug_loc     0x000000000000d17b      0xd4e build/event_groups.o
 .debug_loc     0x000000000000dec9       0xe5 build/list.o
 .debug_loc     0x000000000000dfae     0x2146 build/queue.o
 .debug_loc     0x00000000000100f4     0x35ef build/tasks.o
 .debug_loc     0x00000000000136e3     0x14ce build/timers.o
 .debug_loc     0x0000000000014bb1      0x4f5 build/heap_4.o
 .debug_loc     0x00000000000150a6      0x17c build/port.o
 .debug_loc     0x0000000000015222     0x5aec build/cmsis_os2.o
 .debug_loc     0x000000000001ad0e      0x33e build/logging.o
 .debug_loc     0x000000000001b04c      0xcfc build/FreeRTOS_ARP.o
 .debug_loc     0x000000000001bd48     0x2985 build/FreeRTOS_IP.o
 .debug_loc     0x000000000001e6cd     0x4a82 build/FreeRTOS_Sockets.o
 .debug_loc     0x000000000002314f      0x78d build/FreeRTOS_Stream_Buffer.o
 .debug_loc     0x00000000000238dc     0x364e build/FreeRTOS_TCP_IP.o
 .debug_loc     0x0000000000026f2a     0x1be6 build/FreeRTOS_TCP_WIN.o
 .debug_loc     0x0000000000028b10      0x2e8 build/FreeRTOS_UDP_IP.o
 .debug_loc     0x0000000000028df8      0x3af build/BufferAllocation_1.o
 .debug_loc     0x00000000000291a7      0x98a build/phyHandling.o
 .debug_loc     0x0000000000029b31      0xa4d build/NetworkInterface.o
 .debug_loc     0x000000000002a57e     0x102d build/stm32fxx_hal_eth.o

.debug_aranges  0x0000000000000000     0x20e8
 .debug_aranges
                0x0000000000000000       0x40 build/main.o
 .debug_aranges
                0x0000000000000040       0x68 build/freertos.o
 .debug_aranges
                0x00000000000000a8       0x58 build/stm32f7xx_it.o
 .debug_aranges
                0x0000000000000100       0x68 build/stm32f7xx_hal_msp.o
 .debug_aranges
                0x0000000000000168       0x60 build/stm32f7xx_nucleo_144.o
 .debug_aranges
                0x00000000000001c8      0x100 build/stm32f7xx_hal.o
 .debug_aranges
                0x00000000000002c8       0xa8 build/stm32f7xx_hal_cortex.o
 .debug_aranges
                0x0000000000000370       0x88 build/stm32f7xx_hal_rcc.o
 .debug_aranges
                0x00000000000003f8       0x50 build/stm32f7xx_hal_rcc_ex.o
 .debug_aranges
                0x0000000000000448       0x88 build/stm32f7xx_hal_rng.o
 .debug_aranges
                0x00000000000004d0      0x3e0 build/stm32f7xx_hal_tim.o
 .debug_aranges
                0x00000000000008b0      0x178 build/stm32f7xx_hal_tim_ex.o
 .debug_aranges
                0x0000000000000a28       0xa0 build/stm32f7xx_hal_pwr.o
 .debug_aranges
                0x0000000000000ac8       0x80 build/stm32f7xx_hal_pwr_ex.o
 .debug_aranges
                0x0000000000000b48      0x228 build/stm32f7xx_hal_uart.o
 .debug_aranges
                0x0000000000000d70       0x58 build/stm32f7xx_hal_gpio.o
 .debug_aranges
                0x0000000000000dc8       0x28 build/system_stm32f7xx.o
 .debug_aranges
                0x0000000000000df0       0x90 build/event_groups.o
 .debug_aranges
                0x0000000000000e80       0x40 build/list.o
 .debug_aranges
                0x0000000000000ec0      0x158 build/queue.o
 .debug_aranges
                0x0000000000001018      0x220 build/tasks.o
 .debug_aranges
                0x0000000000001238       0xf8 build/timers.o
 .debug_aranges
                0x0000000000001330       0x58 build/heap_4.o
 .debug_aranges
                0x0000000000001388       0x80 build/port.o
 .debug_aranges
                0x0000000000001408      0x228 build/cmsis_os2.o
 .debug_aranges
                0x0000000000001630       0x40 build/logging.o
 .debug_aranges
                0x0000000000001670       0x78 build/FreeRTOS_ARP.o
 .debug_aranges
                0x00000000000016e8      0x2b0 build/FreeRTOS_IP.o
 .debug_aranges
                0x0000000000001998      0x1e8 build/FreeRTOS_Sockets.o
 .debug_aranges
                0x0000000000001b80       0x78 build/FreeRTOS_Stream_Buffer.o
 .debug_aranges
                0x0000000000001bf8      0x140 build/FreeRTOS_TCP_IP.o
 .debug_aranges
                0x0000000000001d38       0xe8 build/FreeRTOS_TCP_WIN.o
 .debug_aranges
                0x0000000000001e20       0x28 build/FreeRTOS_UDP_IP.o
 .debug_aranges
                0x0000000000001e48       0x60 build/BufferAllocation_1.o
 .debug_aranges
                0x0000000000001ea8       0x60 build/phyHandling.o
 .debug_aranges
                0x0000000000001f08       0xb0 build/NetworkInterface.o
 .debug_aranges
                0x0000000000001fb8      0x108 build/stm32fxx_hal_eth.o
 .debug_aranges
                0x00000000000020c0       0x28 build/startup_stm32f746xx.o

.debug_ranges   0x0000000000000000     0x2678
 .debug_ranges  0x0000000000000000       0x30 build/main.o
 .debug_ranges  0x0000000000000030       0x58 build/freertos.o
 .debug_ranges  0x0000000000000088       0x48 build/stm32f7xx_it.o
 .debug_ranges  0x00000000000000d0       0x58 build/stm32f7xx_hal_msp.o
 .debug_ranges  0x0000000000000128       0x50 build/stm32f7xx_nucleo_144.o
 .debug_ranges  0x0000000000000178       0xf0 build/stm32f7xx_hal.o
 .debug_ranges  0x0000000000000268       0xf8 build/stm32f7xx_hal_cortex.o
 .debug_ranges  0x0000000000000360       0x78 build/stm32f7xx_hal_rcc.o
 .debug_ranges  0x00000000000003d8       0x40 build/stm32f7xx_hal_rcc_ex.o
 .debug_ranges  0x0000000000000418       0x78 build/stm32f7xx_hal_rng.o
 .debug_ranges  0x0000000000000490      0x3d0 build/stm32f7xx_hal_tim.o
 .debug_ranges  0x0000000000000860      0x168 build/stm32f7xx_hal_tim_ex.o
 .debug_ranges  0x00000000000009c8       0x90 build/stm32f7xx_hal_pwr.o
 .debug_ranges  0x0000000000000a58       0x70 build/stm32f7xx_hal_pwr_ex.o
 .debug_ranges  0x0000000000000ac8      0x218 build/stm32f7xx_hal_uart.o
 .debug_ranges  0x0000000000000ce0       0x48 build/stm32f7xx_hal_gpio.o
 .debug_ranges  0x0000000000000d28       0x18 build/system_stm32f7xx.o
 .debug_ranges  0x0000000000000d40       0xb8 build/event_groups.o
 .debug_ranges  0x0000000000000df8       0x30 build/list.o
 .debug_ranges  0x0000000000000e28      0x218 build/queue.o
 .debug_ranges  0x0000000000001040      0x498 build/tasks.o
 .debug_ranges  0x00000000000014d8       0xe8 build/timers.o
 .debug_ranges  0x00000000000015c0       0x48 build/heap_4.o
 .debug_ranges  0x0000000000001608       0x70 build/port.o
 .debug_ranges  0x0000000000001678      0x218 build/cmsis_os2.o
 .debug_ranges  0x0000000000001890       0x48 build/logging.o
 .debug_ranges  0x00000000000018d8       0xb8 build/FreeRTOS_ARP.o
 .debug_ranges  0x0000000000001990      0x368 build/FreeRTOS_IP.o
 .debug_ranges  0x0000000000001cf8      0x308 build/FreeRTOS_Sockets.o
 .debug_ranges  0x0000000000002000       0x68 build/FreeRTOS_Stream_Buffer.o
 .debug_ranges  0x0000000000002068      0x1c0 build/FreeRTOS_TCP_IP.o
 .debug_ranges  0x0000000000002228      0x108 build/FreeRTOS_TCP_WIN.o
 .debug_ranges  0x0000000000002330       0x18 build/FreeRTOS_UDP_IP.o
 .debug_ranges  0x0000000000002348       0x68 build/BufferAllocation_1.o
 .debug_ranges  0x00000000000023b0       0xc8 build/phyHandling.o
 .debug_ranges  0x0000000000002478       0xe8 build/NetworkInterface.o
 .debug_ranges  0x0000000000002560       0xf8 build/stm32fxx_hal_eth.o
 .debug_ranges  0x0000000000002658       0x20 build/startup_stm32f746xx.o

.debug_line     0x0000000000000000    0x28619
 .debug_line    0x0000000000000000      0x871 build/main.o
 .debug_line    0x0000000000000871      0x667 build/freertos.o
 .debug_line    0x0000000000000ed8      0x497 build/stm32f7xx_it.o
 .debug_line    0x000000000000136f      0x6df build/stm32f7xx_hal_msp.o
 .debug_line    0x0000000000001a4e      0x463 build/stm32f7xx_nucleo_144.o
 .debug_line    0x0000000000001eb1      0x5d7 build/stm32f7xx_hal.o
 .debug_line    0x0000000000002488      0x7e9 build/stm32f7xx_hal_cortex.o
 .debug_line    0x0000000000002c71      0xcfc build/stm32f7xx_hal_rcc.o
 .debug_line    0x000000000000396d      0xc13 build/stm32f7xx_hal_rcc_ex.o
 .debug_line    0x0000000000004580      0x5fb build/stm32f7xx_hal_rng.o
 .debug_line    0x0000000000004b7b     0x4ccc build/stm32f7xx_hal_tim.o
 .debug_line    0x0000000000009847     0x1d9a build/stm32f7xx_hal_tim_ex.o
 .debug_line    0x000000000000b5e1      0x4cd build/stm32f7xx_hal_pwr.o
 .debug_line    0x000000000000baae      0x5ba build/stm32f7xx_hal_pwr_ex.o
 .debug_line    0x000000000000c068     0x2395 build/stm32f7xx_hal_uart.o
 .debug_line    0x000000000000e3fd      0x770 build/stm32f7xx_hal_gpio.o
 .debug_line    0x000000000000eb6d      0x2f6 build/system_stm32f7xx.o
 .debug_line    0x000000000000ee63      0xc6e build/event_groups.o
 .debug_line    0x000000000000fad1      0x4e5 build/list.o
 .debug_line    0x000000000000ffb6     0x2236 build/queue.o
 .debug_line    0x00000000000121ec     0x3882 build/tasks.o
 .debug_line    0x0000000000015a6e      0xf9f build/timers.o
 .debug_line    0x0000000000016a0d      0x83c build/heap_4.o
 .debug_line    0x0000000000017249      0x676 build/port.o
 .debug_line    0x00000000000178bf     0x2d90 build/cmsis_os2.o
 .debug_line    0x000000000001a64f      0x83e build/logging.o
 .debug_line    0x000000000001ae8d      0xc79 build/FreeRTOS_ARP.o
 .debug_line    0x000000000001bb06     0x211a build/FreeRTOS_IP.o
 .debug_line    0x000000000001dc20     0x2cf9 build/FreeRTOS_Sockets.o
 .debug_line    0x0000000000020919      0x783 build/FreeRTOS_Stream_Buffer.o
 .debug_line    0x000000000002109c     0x25c2 build/FreeRTOS_TCP_IP.o
 .debug_line    0x000000000002365e     0x145d build/FreeRTOS_TCP_WIN.o
 .debug_line    0x0000000000024abb      0x671 build/FreeRTOS_UDP_IP.o
 .debug_line    0x000000000002512c      0x6dc build/BufferAllocation_1.o
 .debug_line    0x0000000000025808      0xd06 build/phyHandling.o
 .debug_line    0x000000000002650e      0xfa0 build/NetworkInterface.o
 .debug_line    0x00000000000274ae     0x10be build/stm32fxx_hal_eth.o
 .debug_line    0x000000000002856c       0xad build/startup_stm32f746xx.o

.debug_str      0x0000000000000000     0xcd11
 .debug_str     0x0000000000000000     0x11b9 build/main.o
                                       0x128d (size before relaxing)
 .debug_str     0x00000000000011b9      0x801 build/freertos.o
                                       0x1092 (size before relaxing)
 .debug_str     0x00000000000019ba       0xeb build/stm32f7xx_it.o
                                        0xd95 (size before relaxing)
 .debug_str     0x0000000000001aa5      0xf80 build/stm32f7xx_hal_msp.o
                                       0x1ded (size before relaxing)
 .debug_str     0x0000000000002a25      0x1ab build/stm32f7xx_nucleo_144.o
                                        0xc2a (size before relaxing)
 .debug_str     0x0000000000002bd0      0x2ef build/stm32f7xx_hal.o
                                        0xcf2 (size before relaxing)
 .debug_str     0x0000000000002ebf      0x3b1 build/stm32f7xx_hal_cortex.o
                                        0xe8c (size before relaxing)
 .debug_str     0x0000000000003270      0x1a1 build/stm32f7xx_hal_rcc.o
                                        0x7c5 (size before relaxing)
 .debug_str     0x0000000000003411      0x13e build/stm32f7xx_hal_rcc_ex.o
                                        0x7e4 (size before relaxing)
 .debug_str     0x000000000000354f      0x11b build/stm32f7xx_hal_rng.o
                                        0x55a (size before relaxing)
 .debug_str     0x000000000000366a      0xef5 build/stm32f7xx_hal_tim.o
                                       0x1832 (size before relaxing)
 .debug_str     0x000000000000455f      0x5ef build/stm32f7xx_hal_tim_ex.o
                                       0x106d (size before relaxing)
 .debug_str     0x0000000000004b4e      0x219 build/stm32f7xx_hal_pwr.o
                                        0x72c (size before relaxing)
 .debug_str     0x0000000000004d67      0x1bf build/stm32f7xx_hal_pwr_ex.o
                                        0x73b (size before relaxing)
 .debug_str     0x0000000000004f26      0x779 build/stm32f7xx_hal_uart.o
                                       0x10b5 (size before relaxing)
 .debug_str     0x000000000000569f       0xb3 build/stm32f7xx_hal_gpio.o
                                        0x5ec (size before relaxing)
 .debug_str     0x0000000000005752       0x71 build/system_stm32f7xx.o
                                        0x548 (size before relaxing)
 .debug_str     0x00000000000057c3      0x5d6 build/event_groups.o
                                        0xc33 (size before relaxing)
 .debug_str     0x0000000000005d99       0xac build/list.o
                                        0x71b (size before relaxing)
 .debug_str     0x0000000000005e45      0x882 build/queue.o
                                       0x1140 (size before relaxing)
 .debug_str     0x00000000000066c7      0xd1b build/tasks.o
                                       0x1891 (size before relaxing)
 .debug_str     0x00000000000073e2      0x5c2 build/timers.o
                                       0x107c (size before relaxing)
 .debug_str     0x00000000000079a4      0x2a1 build/heap_4.o
                                        0x929 (size before relaxing)
 .debug_str     0x0000000000007c45      0x181 build/port.o
                                        0x4a9 (size before relaxing)
 .debug_str     0x0000000000007dc6      0x967 build/cmsis_os2.o
                                       0x1d91 (size before relaxing)
 .debug_str     0x000000000000872d      0x26c build/logging.o
                                       0x14f8 (size before relaxing)
 .debug_str     0x0000000000008999      0x939 build/FreeRTOS_ARP.o
                                       0x11bd (size before relaxing)
 .debug_str     0x00000000000092d2     0x15a6 build/FreeRTOS_IP.o
                                       0x2b58 (size before relaxing)
 .debug_str     0x000000000000a878      0xac8 build/FreeRTOS_Sockets.o
                                       0x2281 (size before relaxing)
 .debug_str     0x000000000000b340      0x12a build/FreeRTOS_Stream_Buffer.o
                                        0xab8 (size before relaxing)
 .debug_str     0x000000000000b46a      0x684 build/FreeRTOS_TCP_IP.o
                                       0x1fcd (size before relaxing)
 .debug_str     0x000000000000baee      0x306 build/FreeRTOS_TCP_WIN.o
                                       0x1070 (size before relaxing)
 .debug_str     0x000000000000bdf4       0x6b build/FreeRTOS_UDP_IP.o
                                       0x14a4 (size before relaxing)
 .debug_str     0x000000000000be5f      0x1b5 build/BufferAllocation_1.o
                                        0xde7 (size before relaxing)
 .debug_str     0x000000000000c014      0x2ec build/phyHandling.o
                                        0x999 (size before relaxing)
 .debug_str     0x000000000000c300      0x61a build/NetworkInterface.o
                                       0x1e3c (size before relaxing)
 .debug_str     0x000000000000c91a      0x39c build/stm32fxx_hal_eth.o
                                        0xf7d (size before relaxing)
 .debug_str     0x000000000000ccb6       0x5b build/startup_stm32f746xx.o
                                         0xa0 (size before relaxing)

.comment        0x0000000000000000       0x79
 .comment       0x0000000000000000       0x79 build/main.o
                                         0x7a (size before relaxing)
 .comment       0x0000000000000079       0x7a build/freertos.o
 .comment       0x0000000000000079       0x7a build/stm32f7xx_it.o
 .comment       0x0000000000000079       0x7a build/stm32f7xx_hal_msp.o
 .comment       0x0000000000000079       0x7a build/stm32f7xx_nucleo_144.o
 .comment       0x0000000000000079       0x7a build/stm32f7xx_hal.o
 .comment       0x0000000000000079       0x7a build/stm32f7xx_hal_cortex.o
 .comment       0x0000000000000079       0x7a build/stm32f7xx_hal_rcc.o
 .comment       0x0000000000000079       0x7a build/stm32f7xx_hal_rcc_ex.o
 .comment       0x0000000000000079       0x7a build/stm32f7xx_hal_rng.o
 .comment       0x0000000000000079       0x7a build/stm32f7xx_hal_tim.o
 .comment       0x0000000000000079       0x7a build/stm32f7xx_hal_tim_ex.o
 .comment       0x0000000000000079       0x7a build/stm32f7xx_hal_pwr.o
 .comment       0x0000000000000079       0x7a build/stm32f7xx_hal_pwr_ex.o
 .comment       0x0000000000000079       0x7a build/stm32f7xx_hal_uart.o
 .comment       0x0000000000000079       0x7a build/stm32f7xx_hal_gpio.o
 .comment       0x0000000000000079       0x7a build/system_stm32f7xx.o
 .comment       0x0000000000000079       0x7a build/event_groups.o
 .comment       0x0000000000000079       0x7a build/list.o
 .comment       0x0000000000000079       0x7a build/queue.o
 .comment       0x0000000000000079       0x7a build/tasks.o
 .comment       0x0000000000000079       0x7a build/timers.o
 .comment       0x0000000000000079       0x7a build/heap_4.o
 .comment       0x0000000000000079       0x7a build/port.o
 .comment       0x0000000000000079       0x7a build/cmsis_os2.o
 .comment       0x0000000000000079       0x7a build/logging.o
 .comment       0x0000000000000079       0x7a build/FreeRTOS_ARP.o
 .comment       0x0000000000000079       0x7a build/FreeRTOS_IP.o
 .comment       0x0000000000000079       0x7a build/FreeRTOS_Sockets.o
 .comment       0x0000000000000079       0x7a build/FreeRTOS_Stream_Buffer.o
 .comment       0x0000000000000079       0x7a build/FreeRTOS_TCP_IP.o
 .comment       0x0000000000000079       0x7a build/FreeRTOS_TCP_WIN.o
 .comment       0x0000000000000079       0x7a build/FreeRTOS_UDP_IP.o
 .comment       0x0000000000000079       0x7a build/BufferAllocation_1.o
 .comment       0x0000000000000079       0x7a build/phyHandling.o
 .comment       0x0000000000000079       0x7a build/NetworkInterface.o
 .comment       0x0000000000000079       0x7a build/stm32fxx_hal_eth.o

.debug_frame    0x0000000000000000     0x7054
 .debug_frame   0x0000000000000000       0x98 build/main.o
 .debug_frame   0x0000000000000098      0x110 build/freertos.o
 .debug_frame   0x00000000000001a8       0xa8 build/stm32f7xx_it.o
 .debug_frame   0x0000000000000250      0x12c build/stm32f7xx_hal_msp.o
 .debug_frame   0x000000000000037c      0x120 build/stm32f7xx_nucleo_144.o
 .debug_frame   0x000000000000049c      0x220 build/stm32f7xx_hal.o
 .debug_frame   0x00000000000006bc      0x16c build/stm32f7xx_hal_cortex.o
 .debug_frame   0x0000000000000828      0x1bc build/stm32f7xx_hal_rcc.o
 .debug_frame   0x00000000000009e4       0xe8 build/stm32f7xx_hal_rcc_ex.o
 .debug_frame   0x0000000000000acc      0x140 build/stm32f7xx_hal_rng.o
 .debug_frame   0x0000000000000c0c      0xcfc build/stm32f7xx_hal_tim.o
 .debug_frame   0x0000000000001908      0x4e4 build/stm32f7xx_hal_tim_ex.o
 .debug_frame   0x0000000000001dec      0x138 build/stm32f7xx_hal_pwr.o
 .debug_frame   0x0000000000001f24      0x150 build/stm32f7xx_hal_pwr_ex.o
 .debug_frame   0x0000000000002074      0x6ac build/stm32f7xx_hal_uart.o
 .debug_frame   0x0000000000002720       0xf0 build/stm32f7xx_hal_gpio.o
 .debug_frame   0x0000000000002810       0x30 build/system_stm32f7xx.o
 .debug_frame   0x0000000000002840      0x1f8 build/event_groups.o
 .debug_frame   0x0000000000002a38       0x74 build/list.o
 .debug_frame   0x0000000000002aac      0x52c build/queue.o
 .debug_frame   0x0000000000002fd8      0x838 build/tasks.o
 .debug_frame   0x0000000000003810      0x37c build/timers.o
 .debug_frame   0x0000000000003b8c       0xe4 build/heap_4.o
 .debug_frame   0x0000000000003c70      0x104 build/port.o
 .debug_frame   0x0000000000003d74      0x8c4 build/cmsis_os2.o
 .debug_frame   0x0000000000004638       0xd8 build/logging.o
 .debug_frame   0x0000000000004710      0x214 build/FreeRTOS_ARP.o
 .debug_frame   0x0000000000004924      0x778 build/FreeRTOS_IP.o
 .debug_frame   0x000000000000509c      0x7f4 build/FreeRTOS_Sockets.o
 .debug_frame   0x0000000000005890      0x170 build/FreeRTOS_Stream_Buffer.o
 .debug_frame   0x0000000000005a00      0x578 build/FreeRTOS_TCP_IP.o
 .debug_frame   0x0000000000005f78      0x338 build/FreeRTOS_TCP_WIN.o
 .debug_frame   0x00000000000062b0       0x7c build/FreeRTOS_UDP_IP.o
 .debug_frame   0x000000000000632c       0xec build/BufferAllocation_1.o
 .debug_frame   0x0000000000006418      0x174 build/phyHandling.o
 .debug_frame   0x000000000000658c      0x244 build/NetworkInterface.o
 .debug_frame   0x00000000000067d0      0x358 build/stm32fxx_hal_eth.o
 .debug_frame   0x0000000000006b28       0x2c /usr/local/Caskroom/gcc-arm-embedded/9-2019-q4-major/gcc-arm-none-eabi-9-2019-q4-major/bin/../lib/gcc/arm-none-eabi/9.2.1/../../../../arm-none-eabi/lib/thumb/v7e-m+fp/hard/libc_nano.a(lib_a-init.o)
 .debug_frame   0x0000000000006b54       0x2c /usr/local/Caskroom/gcc-arm-embedded/9-2019-q4-major/gcc-arm-none-eabi-9-2019-q4-major/bin/../lib/gcc/arm-none-eabi/9.2.1/../../../../arm-none-eabi/lib/thumb/v7e-m+fp/hard/libc_nano.a(lib_a-memcmp.o)
 .debug_frame   0x0000000000006b80       0x28 /usr/local/Caskroom/gcc-arm-embedded/9-2019-q4-major/gcc-arm-none-eabi-9-2019-q4-major/bin/../lib/gcc/arm-none-eabi/9.2.1/../../../../arm-none-eabi/lib/thumb/v7e-m+fp/hard/libc_nano.a(lib_a-memcpy-stub.o)
 .debug_frame   0x0000000000006ba8       0x28 /usr/local/Caskroom/gcc-arm-embedded/9-2019-q4-major/gcc-arm-none-eabi-9-2019-q4-major/bin/../lib/gcc/arm-none-eabi/9.2.1/../../../../arm-none-eabi/lib/thumb/v7e-m+fp/hard/libc_nano.a(lib_a-memmove.o)
 .debug_frame   0x0000000000006bd0       0x20 /usr/local/Caskroom/gcc-arm-embedded/9-2019-q4-major/gcc-arm-none-eabi-9-2019-q4-major/bin/../lib/gcc/arm-none-eabi/9.2.1/../../../../arm-none-eabi/lib/thumb/v7e-m+fp/hard/libc_nano.a(lib_a-memset.o)
 .debug_frame   0x0000000000006bf0       0x7c /usr/local/Caskroom/gcc-arm-embedded/9-2019-q4-major/gcc-arm-none-eabi-9-2019-q4-major/bin/../lib/gcc/arm-none-eabi/9.2.1/../../../../arm-none-eabi/lib/thumb/v7e-m+fp/hard/libc_nano.a(lib_a-snprintf.o)
 .debug_frame   0x0000000000006c6c       0x4c /usr/local/Caskroom/gcc-arm-embedded/9-2019-q4-major/gcc-arm-none-eabi-9-2019-q4-major/bin/../lib/gcc/arm-none-eabi/9.2.1/../../../../arm-none-eabi/lib/thumb/v7e-m+fp/hard/libc_nano.a(lib_a-vsnprintf.o)
 .debug_frame   0x0000000000006cb8       0x90 /usr/local/Caskroom/gcc-arm-embedded/9-2019-q4-major/gcc-arm-none-eabi-9-2019-q4-major/bin/../lib/gcc/arm-none-eabi/9.2.1/../../../../arm-none-eabi/lib/thumb/v7e-m+fp/hard/libc_nano.a(lib_a-nano-svfprintf.o)
 .debug_frame   0x0000000000006d48       0x60 /usr/local/Caskroom/gcc-arm-embedded/9-2019-q4-major/gcc-arm-none-eabi-9-2019-q4-major/bin/../lib/gcc/arm-none-eabi/9.2.1/../../../../arm-none-eabi/lib/thumb/v7e-m+fp/hard/libc_nano.a(lib_a-nano-vfprintf_i.o)
 .debug_frame   0x0000000000006da8       0x38 /usr/local/Caskroom/gcc-arm-embedded/9-2019-q4-major/gcc-arm-none-eabi-9-2019-q4-major/bin/../lib/gcc/arm-none-eabi/9.2.1/../../../../arm-none-eabi/lib/thumb/v7e-m+fp/hard/libc_nano.a(lib_a-nano-freer.o)
 .debug_frame   0x0000000000006de0       0x30 /usr/local/Caskroom/gcc-arm-embedded/9-2019-q4-major/gcc-arm-none-eabi-9-2019-q4-major/bin/../lib/gcc/arm-none-eabi/9.2.1/../../../../arm-none-eabi/lib/thumb/v7e-m+fp/hard/libc_nano.a(lib_a-nano-mallocr.o)
 .debug_frame   0x0000000000006e10       0x3c /usr/local/Caskroom/gcc-arm-embedded/9-2019-q4-major/gcc-arm-none-eabi-9-2019-q4-major/bin/../lib/gcc/arm-none-eabi/9.2.1/../../../../arm-none-eabi/lib/thumb/v7e-m+fp/hard/libc_nano.a(lib_a-nano-reallocr.o)
 .debug_frame   0x0000000000006e4c       0x2c /usr/local/Caskroom/gcc-arm-embedded/9-2019-q4-major/gcc-arm-none-eabi-9-2019-q4-major/bin/../lib/gcc/arm-none-eabi/9.2.1/../../../../arm-none-eabi/lib/thumb/v7e-m+fp/hard/libc_nano.a(lib_a-sbrkr.o)
 .debug_frame   0x0000000000006e78       0x30 /usr/local/Caskroom/gcc-arm-embedded/9-2019-q4-major/gcc-arm-none-eabi-9-2019-q4-major/bin/../lib/gcc/arm-none-eabi/9.2.1/../../../../arm-none-eabi/lib/thumb/v7e-m+fp/hard/libc_nano.a(lib_a-mlock.o)
 .debug_frame   0x0000000000006ea8       0x20 /usr/local/Caskroom/gcc-arm-embedded/9-2019-q4-major/gcc-arm-none-eabi-9-2019-q4-major/bin/../lib/gcc/arm-none-eabi/9.2.1/../../../../arm-none-eabi/lib/thumb/v7e-m+fp/hard/libc_nano.a(lib_a-nano-msizer.o)
 .debug_frame   0x0000000000006ec8       0x5c /usr/local/Caskroom/gcc-arm-embedded/9-2019-q4-major/gcc-arm-none-eabi-9-2019-q4-major/bin/../lib/gcc/arm-none-eabi/9.2.1/../../../../arm-none-eabi/lib/thumb/v7e-m+fp/hard/libc_nano.a(lib_a-reent.o)
 .debug_frame   0x0000000000006f24       0xb0 /usr/local/Caskroom/gcc-arm-embedded/9-2019-q4-major/gcc-arm-none-eabi-9-2019-q4-major/bin/../lib/gcc/arm-none-eabi/9.2.1/../../../../arm-none-eabi/lib/thumb/v7e-m+fp/hard/libc_nano.a(lib_a-lock.o)
 .debug_frame   0x0000000000006fd4       0x20 /usr/local/Caskroom/gcc-arm-embedded/9-2019-q4-major/gcc-arm-none-eabi-9-2019-q4-major/bin/../lib/gcc/arm-none-eabi/9.2.1/../../../../arm-none-eabi/lib/thumb/v7e-m+fp/hard/libnosys.a(sbrk.o)
 .debug_frame   0x0000000000006ff4       0x2c /usr/local/Caskroom/gcc-arm-embedded/9-2019-q4-major/gcc-arm-none-eabi-9-2019-q4-major/bin/../lib/gcc/arm-none-eabi/9.2.1/thumb/v7e-m+fp/hard/libgcc.a(_aeabi_uldivmod.o)
 .debug_frame   0x0000000000007020       0x34 /usr/local/Caskroom/gcc-arm-embedded/9-2019-q4-major/gcc-arm-none-eabi-9-2019-q4-major/bin/../lib/gcc/arm-none-eabi/9.2.1/thumb/v7e-m+fp/hard/libgcc.a(_udivmoddi4.o)

Cross Reference Table

Symbol                                            File
ADC_IRQHandler                                    build/startup_stm32f746xx.o
AHBPrescTable                                     build/system_stm32f7xx.o
                                                  build/stm32f7xx_hal_rcc.o
APBPrescTable                                     build/system_stm32f7xx.o
                                                  build/stm32f7xx_hal_rcc.o
BSP_GetVersion                                    build/stm32f7xx_nucleo_144.o
BSP_LED_DeInit                                    build/stm32f7xx_nucleo_144.o
BSP_LED_Init                                      build/stm32f7xx_nucleo_144.o
                                                  build/main.o
BSP_LED_Off                                       build/stm32f7xx_nucleo_144.o
                                                  build/logging.o
BSP_LED_On                                        build/stm32f7xx_nucleo_144.o
                                                  build/logging.o
                                                  build/main.o
BSP_LED_Toggle                                    build/stm32f7xx_nucleo_144.o
                                                  build/main.o
BSP_PB_DeInit                                     build/stm32f7xx_nucleo_144.o
BSP_PB_GetState                                   build/stm32f7xx_nucleo_144.o
BSP_PB_Init                                       build/stm32f7xx_nucleo_144.o
BUTTON_IRQn                                       build/stm32f7xx_nucleo_144.o
BUTTON_PIN                                        build/stm32f7xx_nucleo_144.o
BUTTON_PORT                                       build/stm32f7xx_nucleo_144.o
BusFault_Handler                                  build/stm32f7xx_it.o
CAN1_RX0_IRQHandler                               build/startup_stm32f746xx.o
CAN1_RX1_IRQHandler                               build/startup_stm32f746xx.o
CAN1_SCE_IRQHandler                               build/startup_stm32f746xx.o
CAN1_TX_IRQHandler                                build/startup_stm32f746xx.o
CAN2_RX0_IRQHandler                               build/startup_stm32f746xx.o
CAN2_RX1_IRQHandler                               build/startup_stm32f746xx.o
CAN2_SCE_IRQHandler                               build/startup_stm32f746xx.o
CAN2_TX_IRQHandler                                build/startup_stm32f746xx.o
CEC_IRQHandler                                    build/startup_stm32f746xx.o
DCMI_IRQHandler                                   build/startup_stm32f746xx.o
DMA1_Stream0_IRQHandler                           build/startup_stm32f746xx.o
DMA1_Stream1_IRQHandler                           build/startup_stm32f746xx.o
DMA1_Stream2_IRQHandler                           build/startup_stm32f746xx.o
DMA1_Stream3_IRQHandler                           build/startup_stm32f746xx.o
DMA1_Stream4_IRQHandler                           build/startup_stm32f746xx.o
DMA1_Stream5_IRQHandler                           build/startup_stm32f746xx.o
DMA1_Stream6_IRQHandler                           build/startup_stm32f746xx.o
DMA1_Stream7_IRQHandler                           build/startup_stm32f746xx.o
DMA2D_IRQHandler                                  build/startup_stm32f746xx.o
DMA2_Stream0_IRQHandler                           build/startup_stm32f746xx.o
DMA2_Stream1_IRQHandler                           build/startup_stm32f746xx.o
DMA2_Stream2_IRQHandler                           build/startup_stm32f746xx.o
DMA2_Stream3_IRQHandler                           build/startup_stm32f746xx.o
DMA2_Stream4_IRQHandler                           build/startup_stm32f746xx.o
DMA2_Stream5_IRQHandler                           build/startup_stm32f746xx.o
DMA2_Stream6_IRQHandler                           build/startup_stm32f746xx.o
DMA2_Stream7_IRQHandler                           build/startup_stm32f746xx.o
DMARxDscrTab                                      build/NetworkInterface.o
DMATxDscrTab                                      build/NetworkInterface.o
DebugMon_Handler                                  build/stm32f7xx_it.o
Default_Handler                                   build/startup_stm32f746xx.o
ETH_IRQHandler                                    build/NetworkInterface.o
ETH_WKUP_IRQHandler                               build/startup_stm32f746xx.o
EXTI0_IRQHandler                                  build/startup_stm32f746xx.o
EXTI15_10_IRQHandler                              build/startup_stm32f746xx.o
EXTI1_IRQHandler                                  build/startup_stm32f746xx.o
EXTI2_IRQHandler                                  build/startup_stm32f746xx.o
EXTI3_IRQHandler                                  build/startup_stm32f746xx.o
EXTI4_IRQHandler                                  build/startup_stm32f746xx.o
EXTI9_5_IRQHandler                                build/startup_stm32f746xx.o
Error_Handler                                     build/main.o
                                                  build/logging.o
                                                  build/freertos.o
FLASH_IRQHandler                                  build/startup_stm32f746xx.o
FMC_IRQHandler                                    build/startup_stm32f746xx.o
FPU_IRQHandler                                    build/startup_stm32f746xx.o
FreeRTOS_ClearARP                                 build/FreeRTOS_ARP.o
                                                  build/FreeRTOS_IP.o
FreeRTOS_CreateSocketSet                          build/FreeRTOS_Sockets.o
FreeRTOS_DeleteSocketSet                          build/FreeRTOS_Sockets.o
FreeRTOS_FD_CLR                                   build/FreeRTOS_Sockets.o
FreeRTOS_FD_ISSET                                 build/FreeRTOS_Sockets.o
FreeRTOS_FD_SET                                   build/FreeRTOS_Sockets.o
FreeRTOS_GetAddressConfiguration                  build/FreeRTOS_IP.o
                                                  build/FreeRTOS_DNS.o
                                                  build/freertos.o
FreeRTOS_GetDNSServerAddress                      build/FreeRTOS_IP.o
FreeRTOS_GetGatewayAddress                        build/FreeRTOS_IP.o
FreeRTOS_GetIPAddress                             build/FreeRTOS_IP.o
FreeRTOS_GetIPTaskHandle                          build/FreeRTOS_IP.o
FreeRTOS_GetLocalAddress                          build/FreeRTOS_Sockets.o
FreeRTOS_GetMACAddress                            build/FreeRTOS_IP.o
                                                  build/NetworkInterface.o
FreeRTOS_GetNetmask                               build/FreeRTOS_IP.o
FreeRTOS_GetRemoteAddress                         build/FreeRTOS_Sockets.o
FreeRTOS_GetTCPStateName                          build/FreeRTOS_TCP_IP.o
                                                  build/FreeRTOS_Sockets.o
FreeRTOS_GetUDPPayloadBuffer                      build/FreeRTOS_IP.o
FreeRTOS_IPInit                                   build/FreeRTOS_IP.o
                                                  build/main.o
FreeRTOS_IsNetworkUp                              build/FreeRTOS_IP.o
                                                  build/logging.o
FreeRTOS_NetworkDown                              build/FreeRTOS_IP.o
FreeRTOS_NetworkDownFromISR                       build/FreeRTOS_IP.o
FreeRTOS_OutputARPRequest                         build/FreeRTOS_ARP.o
                                                  build/FreeRTOS_TCP_IP.o
FreeRTOS_PrintARPCache                            build/FreeRTOS_ARP.o
FreeRTOS_ReleaseUDPPayloadBuffer                  build/FreeRTOS_IP.o
                                                  build/FreeRTOS_DNS.o
FreeRTOS_SendPingRequest                          build/FreeRTOS_IP.o
FreeRTOS_SetAddressConfiguration                  build/FreeRTOS_IP.o
FreeRTOS_SetGatewayAddress                        build/FreeRTOS_IP.o
FreeRTOS_SetIPAddress                             build/FreeRTOS_IP.o
FreeRTOS_SetNetmask                               build/FreeRTOS_IP.o
FreeRTOS_UpdateMACAddress                         build/FreeRTOS_IP.o
FreeRTOS_accept                                   build/FreeRTOS_Sockets.o
FreeRTOS_bind                                     build/FreeRTOS_Sockets.o
                                                  build/FreeRTOS_DNS.o
                                                  build/logging.o
FreeRTOS_closesocket                              build/FreeRTOS_Sockets.o
                                                  build/FreeRTOS_DNS.o
FreeRTOS_connect                                  build/FreeRTOS_Sockets.o
FreeRTOS_connstatus                               build/FreeRTOS_Sockets.o
FreeRTOS_dnsclear                                 build/FreeRTOS_DNS.o
FreeRTOS_dnslookup                                build/FreeRTOS_DNS.o
FreeRTOS_get_rx_buf                               build/FreeRTOS_Sockets.o
FreeRTOS_get_tx_head                              build/FreeRTOS_Sockets.o
FreeRTOS_gethostbyname                            build/FreeRTOS_DNS.o
FreeRTOS_inet_addr                                build/FreeRTOS_Sockets.o
                                                  build/FreeRTOS_DNS.o
FreeRTOS_inet_ntoa                                build/FreeRTOS_Sockets.o
                                                  build/freertos.o
FreeRTOS_inet_ntop                                build/FreeRTOS_Sockets.o
                                                  build/FreeRTOS_DNS.o
FreeRTOS_inet_ntop4                               build/FreeRTOS_Sockets.o
FreeRTOS_inet_pton                                build/FreeRTOS_Sockets.o
FreeRTOS_inet_pton4                               build/FreeRTOS_Sockets.o
FreeRTOS_issocketconnected                        build/FreeRTOS_Sockets.o
FreeRTOS_listen                                   build/FreeRTOS_Sockets.o
FreeRTOS_max_int32                                build/FreeRTOS_IP.o
FreeRTOS_max_uint32                               build/FreeRTOS_IP.o
                                                  build/FreeRTOS_Sockets.o
FreeRTOS_maywrite                                 build/FreeRTOS_Sockets.o
FreeRTOS_min_int32                                build/FreeRTOS_IP.o
                                                  build/FreeRTOS_TCP_WIN.o
                                                  build/FreeRTOS_TCP_IP.o
                                                  build/FreeRTOS_Sockets.o
FreeRTOS_min_uint32                               build/FreeRTOS_IP.o
                                                  build/FreeRTOS_TCP_WIN.o
                                                  build/FreeRTOS_TCP_IP.o
                                                  build/FreeRTOS_Stream_Buffer.o
FreeRTOS_mss                                      build/FreeRTOS_Sockets.o
FreeRTOS_netstat                                  build/FreeRTOS_Sockets.o
FreeRTOS_recv                                     build/FreeRTOS_Sockets.o
FreeRTOS_recvfrom                                 build/FreeRTOS_Sockets.o
                                                  build/FreeRTOS_DNS.o
FreeRTOS_round_down                               build/FreeRTOS_IP.o
FreeRTOS_round_up                                 build/FreeRTOS_IP.o
                                                  build/FreeRTOS_Sockets.o
FreeRTOS_rx_size                                  build/FreeRTOS_Sockets.o
FreeRTOS_select                                   build/FreeRTOS_Sockets.o
FreeRTOS_send                                     build/FreeRTOS_Sockets.o
FreeRTOS_sendto                                   build/FreeRTOS_Sockets.o
                                                  build/FreeRTOS_DNS.o
                                                  build/logging.o
FreeRTOS_setsockopt                               build/FreeRTOS_Sockets.o
                                                  build/FreeRTOS_DNS.o
                                                  build/logging.o
FreeRTOS_shutdown                                 build/FreeRTOS_Sockets.o
FreeRTOS_socket                                   build/FreeRTOS_Sockets.o
                                                  build/FreeRTOS_TCP_IP.o
                                                  build/FreeRTOS_DNS.o
                                                  build/logging.o
FreeRTOS_strerror_r                               build/FreeRTOS_IP.o
FreeRTOS_tx_size                                  build/FreeRTOS_Sockets.o
FreeRTOS_tx_space                                 build/FreeRTOS_Sockets.o
GPIO_PIN                                          build/stm32f7xx_nucleo_144.o
GPIO_PORT                                         build/stm32f7xx_nucleo_144.o
HAL_DBGMCU_DisableDBGSleepMode                    build/stm32f7xx_hal.o
HAL_DBGMCU_DisableDBGStandbyMode                  build/stm32f7xx_hal.o
HAL_DBGMCU_DisableDBGStopMode                     build/stm32f7xx_hal.o
HAL_DBGMCU_EnableDBGSleepMode                     build/stm32f7xx_hal.o
HAL_DBGMCU_EnableDBGStandbyMode                   build/stm32f7xx_hal.o
HAL_DBGMCU_EnableDBGStopMode                      build/stm32f7xx_hal.o
HAL_DMAEx_ChangeMemory                            build/stm32f7xx_hal_dma_ex.o
HAL_DMAEx_MultiBufferStart                        build/stm32f7xx_hal_dma_ex.o
HAL_DMAEx_MultiBufferStart_IT                     build/stm32f7xx_hal_dma_ex.o
HAL_DMA_Abort                                     build/stm32f7xx_hal_dma.o
                                                  build/stm32f7xx_hal_uart.o
HAL_DMA_Abort_IT                                  build/stm32f7xx_hal_dma.o
                                                  build/stm32f7xx_hal_uart.o
                                                  build/stm32f7xx_hal_tim_ex.o
                                                  build/stm32f7xx_hal_tim.o
HAL_DMA_DeInit                                    build/stm32f7xx_hal_dma.o
HAL_DMA_GetError                                  build/stm32f7xx_hal_dma.o
                                                  build/stm32f7xx_hal_uart.o
HAL_DMA_GetState                                  build/stm32f7xx_hal_dma.o
HAL_DMA_IRQHandler                                build/stm32f7xx_hal_dma.o
HAL_DMA_Init                                      build/stm32f7xx_hal_dma.o
HAL_DMA_PollForTransfer                           build/stm32f7xx_hal_dma.o
HAL_DMA_RegisterCallback                          build/stm32f7xx_hal_dma.o
HAL_DMA_Start                                     build/stm32f7xx_hal_dma.o
HAL_DMA_Start_IT                                  build/stm32f7xx_hal_dma.o
                                                  build/stm32f7xx_hal_uart.o
                                                  build/stm32f7xx_hal_tim_ex.o
                                                  build/stm32f7xx_hal_tim.o
HAL_DMA_UnRegisterCallback                        build/stm32f7xx_hal_dma.o
HAL_DeInit                                        build/stm32f7xx_hal.o
HAL_Delay                                         build/stm32f7xx_hal.o
HAL_DisableCompensationCell                       build/stm32f7xx_hal.o
HAL_DisableFMCMemorySwapping                      build/stm32f7xx_hal.o
HAL_ETH_ConfigDMA                                 build/stm32fxx_hal_eth.o
HAL_ETH_ConfigMAC                                 build/stm32fxx_hal_eth.o
                                                  build/NetworkInterface.o
HAL_ETH_DeInit                                    build/stm32fxx_hal_eth.o
HAL_ETH_ErrorCallback                             build/stm32fxx_hal_eth.o
HAL_ETH_GetState                                  build/stm32fxx_hal_eth.o
HAL_ETH_IRQHandler                                build/stm32fxx_hal_eth.o
                                                  build/NetworkInterface.o
HAL_ETH_Init                                      build/stm32fxx_hal_eth.o
                                                  build/NetworkInterface.o
HAL_ETH_MspDeInit                                 build/stm32f7xx_hal_msp.o
HAL_ETH_MspInit                                   build/stm32f7xx_hal_msp.o
HAL_ETH_ReadPHYRegister                           build/stm32fxx_hal_eth.o
                                                  build/NetworkInterface.o
HAL_ETH_RxCpltCallback                            build/NetworkInterface.o
HAL_ETH_Start                                     build/stm32fxx_hal_eth.o
                                                  build/NetworkInterface.o
HAL_ETH_Stop                                      build/stm32fxx_hal_eth.o
                                                  build/NetworkInterface.o
HAL_ETH_TxCpltCallback                            build/NetworkInterface.o
HAL_ETH_WritePHYRegister                          build/stm32fxx_hal_eth.o
                                                  build/NetworkInterface.o
HAL_EnableCompensationCell                        build/stm32f7xx_hal.o
HAL_EnableFMCMemorySwapping                       build/stm32f7xx_hal.o
HAL_GPIO_DeInit                                   build/stm32f7xx_hal_gpio.o
                                                  build/stm32f7xx_nucleo_144.o
                                                  build/stm32f7xx_hal_msp.o
HAL_GPIO_EXTI_Callback                            build/stm32f7xx_hal_gpio.o
HAL_GPIO_EXTI_IRQHandler                          build/stm32f7xx_hal_gpio.o
HAL_GPIO_Init                                     build/stm32f7xx_hal_gpio.o
                                                  build/stm32f7xx_hal_rcc.o
                                                  build/stm32f7xx_nucleo_144.o
                                                  build/stm32f7xx_hal_msp.o
HAL_GPIO_LockPin                                  build/stm32f7xx_hal_gpio.o
HAL_GPIO_ReadPin                                  build/stm32f7xx_hal_gpio.o
                                                  build/stm32f7xx_nucleo_144.o
HAL_GPIO_TogglePin                                build/stm32f7xx_hal_gpio.o
                                                  build/stm32f7xx_nucleo_144.o
HAL_GPIO_WritePin                                 build/stm32f7xx_hal_gpio.o
                                                  build/stm32f7xx_nucleo_144.o
HAL_GetDEVID                                      build/stm32f7xx_hal.o
HAL_GetHalVersion                                 build/stm32f7xx_hal.o
HAL_GetREVID                                      build/stm32f7xx_hal.o
HAL_GetTick                                       build/stm32f7xx_hal.o
                                                  build/stm32fxx_hal_eth.o
                                                  build/stm32f7xx_hal_uart_ex.o
                                                  build/stm32f7xx_hal_uart.o
                                                  build/stm32f7xx_hal_pwr_ex.o
                                                  build/stm32f7xx_hal_rng.o
                                                  build/stm32f7xx_hal_dma.o
                                                  build/stm32f7xx_hal_rcc_ex.o
                                                  build/stm32f7xx_hal_rcc.o
HAL_GetTickFreq                                   build/stm32f7xx_hal.o
HAL_GetTickPrio                                   build/stm32f7xx_hal.o
HAL_GetUIDw0                                      build/stm32f7xx_hal.o
HAL_GetUIDw1                                      build/stm32f7xx_hal.o
HAL_GetUIDw2                                      build/stm32f7xx_hal.o
HAL_HalfDuplex_EnableReceiver                     build/stm32f7xx_hal_uart.o
HAL_HalfDuplex_EnableTransmitter                  build/stm32f7xx_hal_uart.o
HAL_HalfDuplex_Init                               build/stm32f7xx_hal_uart.o
HAL_IncTick                                       build/stm32f7xx_hal.o
                                                  build/stm32f7xx_it.o
HAL_Init                                          build/stm32f7xx_hal.o
                                                  build/main.o
HAL_InitTick                                      build/stm32f7xx_hal.o
                                                  build/stm32f7xx_hal_rcc.o
HAL_LIN_Init                                      build/stm32f7xx_hal_uart.o
HAL_LIN_SendBreak                                 build/stm32f7xx_hal_uart.o
HAL_MPU_ConfigRegion                              build/stm32f7xx_hal_cortex.o
HAL_MPU_Disable                                   build/stm32f7xx_hal_cortex.o
HAL_MPU_Enable                                    build/stm32f7xx_hal_cortex.o
HAL_MspDeInit                                     build/stm32f7xx_hal_msp.o
HAL_MspInit                                       build/stm32f7xx_hal_msp.o
HAL_MultiProcessorEx_AddressLength_Set            build/stm32f7xx_hal_uart_ex.o
HAL_MultiProcessor_DisableMuteMode                build/stm32f7xx_hal_uart.o
HAL_MultiProcessor_EnableMuteMode                 build/stm32f7xx_hal_uart.o
HAL_MultiProcessor_EnterMuteMode                  build/stm32f7xx_hal_uart.o
HAL_MultiProcessor_Init                           build/stm32f7xx_hal_uart.o
HAL_NVIC_ClearPendingIRQ                          build/stm32f7xx_hal_cortex.o
HAL_NVIC_DisableIRQ                               build/stm32f7xx_hal_cortex.o
                                                  build/stm32f7xx_nucleo_144.o
                                                  build/stm32f7xx_hal_msp.o
HAL_NVIC_EnableIRQ                                build/stm32f7xx_hal_cortex.o
                                                  build/stm32f7xx_nucleo_144.o
                                                  build/stm32f7xx_hal_msp.o
HAL_NVIC_GetActive                                build/stm32f7xx_hal_cortex.o
HAL_NVIC_GetPendingIRQ                            build/stm32f7xx_hal_cortex.o
HAL_NVIC_GetPriority                              build/stm32f7xx_hal_cortex.o
HAL_NVIC_GetPriorityGrouping                      build/stm32f7xx_hal_cortex.o
HAL_NVIC_SetPendingIRQ                            build/stm32f7xx_hal_cortex.o
HAL_NVIC_SetPriority                              build/stm32f7xx_hal_cortex.o
                                                  build/stm32f7xx_hal.o
                                                  build/stm32f7xx_nucleo_144.o
                                                  build/stm32f7xx_hal_msp.o
HAL_NVIC_SetPriorityGrouping                      build/stm32f7xx_hal_cortex.o
                                                  build/stm32f7xx_hal.o
HAL_NVIC_SystemReset                              build/stm32f7xx_hal_cortex.o
HAL_PWREx_ControlVoltageScaling                   build/stm32f7xx_hal_pwr_ex.o
HAL_PWREx_DisableBkUpReg                          build/stm32f7xx_hal_pwr_ex.o
HAL_PWREx_DisableFlashPowerDown                   build/stm32f7xx_hal_pwr_ex.o
HAL_PWREx_DisableLowRegulatorLowVoltage           build/stm32f7xx_hal_pwr_ex.o
HAL_PWREx_DisableMainRegulatorLowVoltage          build/stm32f7xx_hal_pwr_ex.o
HAL_PWREx_DisableOverDrive                        build/stm32f7xx_hal_pwr_ex.o
HAL_PWREx_EnableBkUpReg                           build/stm32f7xx_hal_pwr_ex.o
HAL_PWREx_EnableFlashPowerDown                    build/stm32f7xx_hal_pwr_ex.o
HAL_PWREx_EnableLowRegulatorLowVoltage            build/stm32f7xx_hal_pwr_ex.o
HAL_PWREx_EnableMainRegulatorLowVoltage           build/stm32f7xx_hal_pwr_ex.o
HAL_PWREx_EnableOverDrive                         build/stm32f7xx_hal_pwr_ex.o
                                                  build/main.o
HAL_PWREx_EnterUnderDriveSTOPMode                 build/stm32f7xx_hal_pwr_ex.o
HAL_PWREx_GetVoltageRange                         build/stm32f7xx_hal_pwr_ex.o
HAL_PWR_ConfigPVD                                 build/stm32f7xx_hal_pwr.o
HAL_PWR_DeInit                                    build/stm32f7xx_hal_pwr.o
HAL_PWR_DisableBkUpAccess                         build/stm32f7xx_hal_pwr.o
HAL_PWR_DisablePVD                                build/stm32f7xx_hal_pwr.o
HAL_PWR_DisableSEVOnPend                          build/stm32f7xx_hal_pwr.o
HAL_PWR_DisableSleepOnExit                        build/stm32f7xx_hal_pwr.o
HAL_PWR_DisableWakeUpPin                          build/stm32f7xx_hal_pwr.o
HAL_PWR_EnableBkUpAccess                          build/stm32f7xx_hal_pwr.o
                                                  build/main.o
HAL_PWR_EnablePVD                                 build/stm32f7xx_hal_pwr.o
HAL_PWR_EnableSEVOnPend                           build/stm32f7xx_hal_pwr.o
HAL_PWR_EnableSleepOnExit                         build/stm32f7xx_hal_pwr.o
HAL_PWR_EnableWakeUpPin                           build/stm32f7xx_hal_pwr.o
HAL_PWR_EnterSLEEPMode                            build/stm32f7xx_hal_pwr.o
HAL_PWR_EnterSTANDBYMode                          build/stm32f7xx_hal_pwr.o
HAL_PWR_EnterSTOPMode                             build/stm32f7xx_hal_pwr.o
HAL_PWR_PVDCallback                               build/stm32f7xx_hal_pwr.o
HAL_PWR_PVD_IRQHandler                            build/stm32f7xx_hal_pwr.o
HAL_RCCEx_DisablePLLI2S                           build/stm32f7xx_hal_rcc_ex.o
HAL_RCCEx_DisablePLLSAI                           build/stm32f7xx_hal_rcc_ex.o
HAL_RCCEx_EnablePLLI2S                            build/stm32f7xx_hal_rcc_ex.o
HAL_RCCEx_EnablePLLSAI                            build/stm32f7xx_hal_rcc_ex.o
HAL_RCCEx_GetPeriphCLKConfig                      build/stm32f7xx_hal_rcc_ex.o
HAL_RCCEx_GetPeriphCLKFreq                        build/stm32f7xx_hal_rcc_ex.o
HAL_RCCEx_PeriphCLKConfig                         build/stm32f7xx_hal_rcc_ex.o
                                                  build/stm32f7xx_hal_msp.o
HAL_RCC_CSSCallback                               build/stm32f7xx_hal_rcc.o
HAL_RCC_ClockConfig                               build/stm32f7xx_hal_rcc.o
                                                  build/main.o
HAL_RCC_DeInit                                    build/stm32f7xx_hal_rcc.o
HAL_RCC_DisableCSS                                build/stm32f7xx_hal_rcc.o
HAL_RCC_EnableCSS                                 build/stm32f7xx_hal_rcc.o
HAL_RCC_GetClockConfig                            build/stm32f7xx_hal_rcc.o
HAL_RCC_GetHCLKFreq                               build/stm32f7xx_hal_rcc.o
                                                  build/stm32fxx_hal_eth.o
HAL_RCC_GetOscConfig                              build/stm32f7xx_hal_rcc.o
HAL_RCC_GetPCLK1Freq                              build/stm32f7xx_hal_rcc.o
                                                  build/stm32f7xx_hal_uart.o
HAL_RCC_GetPCLK2Freq                              build/stm32f7xx_hal_rcc.o
                                                  build/stm32f7xx_hal_uart.o
HAL_RCC_GetSysClockFreq                           build/stm32f7xx_hal_rcc.o
                                                  build/stm32f7xx_hal_uart.o
HAL_RCC_MCOConfig                                 build/stm32f7xx_hal_rcc.o
HAL_RCC_NMI_IRQHandler                            build/stm32f7xx_hal_rcc.o
HAL_RCC_OscConfig                                 build/stm32f7xx_hal_rcc.o
                                                  build/main.o
HAL_RNG_DeInit                                    build/stm32f7xx_hal_rng.o
HAL_RNG_ErrorCallback                             build/stm32f7xx_hal_rng.o
HAL_RNG_GenerateRandomNumber                      build/stm32f7xx_hal_rng.o
                                                  build/freertos.o
HAL_RNG_GenerateRandomNumber_IT                   build/stm32f7xx_hal_rng.o
HAL_RNG_GetError                                  build/stm32f7xx_hal_rng.o
HAL_RNG_GetRandomNumber                           build/stm32f7xx_hal_rng.o
                                                  build/freertos.o
HAL_RNG_GetRandomNumber_IT                        build/stm32f7xx_hal_rng.o
HAL_RNG_GetState                                  build/stm32f7xx_hal_rng.o
HAL_RNG_IRQHandler                                build/stm32f7xx_hal_rng.o
HAL_RNG_Init                                      build/stm32f7xx_hal_rng.o
                                                  build/main.o
HAL_RNG_MspDeInit                                 build/stm32f7xx_hal_msp.o
HAL_RNG_MspInit                                   build/stm32f7xx_hal_msp.o
HAL_RNG_ReadLastRandomNumber                      build/stm32f7xx_hal_rng.o
HAL_RNG_ReadyDataCallback                         build/stm32f7xx_hal_rng.o
HAL_RS485Ex_Init                                  build/stm32f7xx_hal_uart_ex.o
HAL_ResumeTick                                    build/stm32f7xx_hal.o
HAL_SYSTICK_CLKSourceConfig                       build/stm32f7xx_hal_cortex.o
HAL_SYSTICK_Callback                              build/stm32f7xx_hal_cortex.o
HAL_SYSTICK_Config                                build/stm32f7xx_hal_cortex.o
                                                  build/stm32f7xx_hal.o
HAL_SYSTICK_IRQHandler                            build/stm32f7xx_hal_cortex.o
HAL_SetTickFreq                                   build/stm32f7xx_hal.o
HAL_SuspendTick                                   build/stm32f7xx_hal.o
HAL_TIMEx_Break2Callback                          build/stm32f7xx_hal_tim_ex.o
                                                  build/stm32f7xx_hal_tim.o
HAL_TIMEx_BreakCallback                           build/stm32f7xx_hal_tim_ex.o
                                                  build/stm32f7xx_hal_tim.o
HAL_TIMEx_CommutCallback                          build/stm32f7xx_hal_tim_ex.o
                                                  build/stm32f7xx_hal_tim.o
HAL_TIMEx_CommutHalfCpltCallback                  build/stm32f7xx_hal_tim_ex.o
HAL_TIMEx_ConfigBreakDeadTime                     build/stm32f7xx_hal_tim_ex.o
HAL_TIMEx_ConfigCommutEvent                       build/stm32f7xx_hal_tim_ex.o
HAL_TIMEx_ConfigCommutEvent_DMA                   build/stm32f7xx_hal_tim_ex.o
HAL_TIMEx_ConfigCommutEvent_IT                    build/stm32f7xx_hal_tim_ex.o
HAL_TIMEx_GetChannelNState                        build/stm32f7xx_hal_tim_ex.o
HAL_TIMEx_GroupChannel5                           build/stm32f7xx_hal_tim_ex.o
HAL_TIMEx_HallSensor_DeInit                       build/stm32f7xx_hal_tim_ex.o
HAL_TIMEx_HallSensor_GetState                     build/stm32f7xx_hal_tim_ex.o
HAL_TIMEx_HallSensor_Init                         build/stm32f7xx_hal_tim_ex.o
HAL_TIMEx_HallSensor_MspDeInit                    build/stm32f7xx_hal_tim_ex.o
HAL_TIMEx_HallSensor_MspInit                      build/stm32f7xx_hal_tim_ex.o
HAL_TIMEx_HallSensor_Start                        build/stm32f7xx_hal_tim_ex.o
HAL_TIMEx_HallSensor_Start_DMA                    build/stm32f7xx_hal_tim_ex.o
HAL_TIMEx_HallSensor_Start_IT                     build/stm32f7xx_hal_tim_ex.o
HAL_TIMEx_HallSensor_Stop                         build/stm32f7xx_hal_tim_ex.o
HAL_TIMEx_HallSensor_Stop_DMA                     build/stm32f7xx_hal_tim_ex.o
HAL_TIMEx_HallSensor_Stop_IT                      build/stm32f7xx_hal_tim_ex.o
HAL_TIMEx_MasterConfigSynchronization             build/stm32f7xx_hal_tim_ex.o
HAL_TIMEx_OCN_Start                               build/stm32f7xx_hal_tim_ex.o
HAL_TIMEx_OCN_Start_DMA                           build/stm32f7xx_hal_tim_ex.o
HAL_TIMEx_OCN_Start_IT                            build/stm32f7xx_hal_tim_ex.o
HAL_TIMEx_OCN_Stop                                build/stm32f7xx_hal_tim_ex.o
HAL_TIMEx_OCN_Stop_DMA                            build/stm32f7xx_hal_tim_ex.o
HAL_TIMEx_OCN_Stop_IT                             build/stm32f7xx_hal_tim_ex.o
HAL_TIMEx_OnePulseN_Start                         build/stm32f7xx_hal_tim_ex.o
HAL_TIMEx_OnePulseN_Start_IT                      build/stm32f7xx_hal_tim_ex.o
HAL_TIMEx_OnePulseN_Stop                          build/stm32f7xx_hal_tim_ex.o
HAL_TIMEx_OnePulseN_Stop_IT                       build/stm32f7xx_hal_tim_ex.o
HAL_TIMEx_PWMN_Start                              build/stm32f7xx_hal_tim_ex.o
HAL_TIMEx_PWMN_Start_DMA                          build/stm32f7xx_hal_tim_ex.o
HAL_TIMEx_PWMN_Start_IT                           build/stm32f7xx_hal_tim_ex.o
HAL_TIMEx_PWMN_Stop                               build/stm32f7xx_hal_tim_ex.o
HAL_TIMEx_PWMN_Stop_DMA                           build/stm32f7xx_hal_tim_ex.o
HAL_TIMEx_PWMN_Stop_IT                            build/stm32f7xx_hal_tim_ex.o
HAL_TIMEx_RemapConfig                             build/stm32f7xx_hal_tim_ex.o
HAL_TIM_Base_DeInit                               build/stm32f7xx_hal_tim.o
HAL_TIM_Base_GetState                             build/stm32f7xx_hal_tim.o
HAL_TIM_Base_Init                                 build/stm32f7xx_hal_tim.o
                                                  build/freertos.o
HAL_TIM_Base_MspDeInit                            build/stm32f7xx_hal_msp.o
HAL_TIM_Base_MspInit                              build/stm32f7xx_hal_msp.o
HAL_TIM_Base_Start                                build/stm32f7xx_hal_tim.o
HAL_TIM_Base_Start_DMA                            build/stm32f7xx_hal_tim.o
HAL_TIM_Base_Start_IT                             build/stm32f7xx_hal_tim.o
                                                  build/freertos.o
HAL_TIM_Base_Stop                                 build/stm32f7xx_hal_tim.o
HAL_TIM_Base_Stop_DMA                             build/stm32f7xx_hal_tim.o
HAL_TIM_Base_Stop_IT                              build/stm32f7xx_hal_tim.o
HAL_TIM_ConfigClockSource                         build/stm32f7xx_hal_tim.o
HAL_TIM_ConfigOCrefClear                          build/stm32f7xx_hal_tim.o
HAL_TIM_ConfigTI1Input                            build/stm32f7xx_hal_tim.o
HAL_TIM_DMABurstState                             build/stm32f7xx_hal_tim.o
HAL_TIM_DMABurst_MultiReadStart                   build/stm32f7xx_hal_tim.o
HAL_TIM_DMABurst_MultiWriteStart                  build/stm32f7xx_hal_tim.o
HAL_TIM_DMABurst_ReadStart                        build/stm32f7xx_hal_tim.o
HAL_TIM_DMABurst_ReadStop                         build/stm32f7xx_hal_tim.o
HAL_TIM_DMABurst_WriteStart                       build/stm32f7xx_hal_tim.o
HAL_TIM_DMABurst_WriteStop                        build/stm32f7xx_hal_tim.o
HAL_TIM_Encoder_DeInit                            build/stm32f7xx_hal_tim.o
HAL_TIM_Encoder_GetState                          build/stm32f7xx_hal_tim.o
HAL_TIM_Encoder_Init                              build/stm32f7xx_hal_tim.o
HAL_TIM_Encoder_MspDeInit                         build/stm32f7xx_hal_tim.o
HAL_TIM_Encoder_MspInit                           build/stm32f7xx_hal_tim.o
HAL_TIM_Encoder_Start                             build/stm32f7xx_hal_tim.o
HAL_TIM_Encoder_Start_DMA                         build/stm32f7xx_hal_tim.o
HAL_TIM_Encoder_Start_IT                          build/stm32f7xx_hal_tim.o
HAL_TIM_Encoder_Stop                              build/stm32f7xx_hal_tim.o
HAL_TIM_Encoder_Stop_DMA                          build/stm32f7xx_hal_tim.o
HAL_TIM_Encoder_Stop_IT                           build/stm32f7xx_hal_tim.o
HAL_TIM_ErrorCallback                             build/stm32f7xx_hal_tim.o
                                                  build/stm32f7xx_hal_tim_ex.o
HAL_TIM_GenerateEvent                             build/stm32f7xx_hal_tim.o
HAL_TIM_GetActiveChannel                          build/stm32f7xx_hal_tim.o
HAL_TIM_GetChannelState                           build/stm32f7xx_hal_tim.o
HAL_TIM_IC_CaptureCallback                        build/stm32f7xx_hal_tim.o
HAL_TIM_IC_CaptureHalfCpltCallback                build/stm32f7xx_hal_tim.o
HAL_TIM_IC_ConfigChannel                          build/stm32f7xx_hal_tim.o
HAL_TIM_IC_DeInit                                 build/stm32f7xx_hal_tim.o
HAL_TIM_IC_GetState                               build/stm32f7xx_hal_tim.o
HAL_TIM_IC_Init                                   build/stm32f7xx_hal_tim.o
HAL_TIM_IC_MspDeInit                              build/stm32f7xx_hal_tim.o
HAL_TIM_IC_MspInit                                build/stm32f7xx_hal_tim.o
HAL_TIM_IC_Start                                  build/stm32f7xx_hal_tim.o
HAL_TIM_IC_Start_DMA                              build/stm32f7xx_hal_tim.o
HAL_TIM_IC_Start_IT                               build/stm32f7xx_hal_tim.o
HAL_TIM_IC_Stop                                   build/stm32f7xx_hal_tim.o
HAL_TIM_IC_Stop_DMA                               build/stm32f7xx_hal_tim.o
HAL_TIM_IC_Stop_IT                                build/stm32f7xx_hal_tim.o
HAL_TIM_IRQHandler                                build/stm32f7xx_hal_tim.o
                                                  build/stm32f7xx_it.o
HAL_TIM_OC_ConfigChannel                          build/stm32f7xx_hal_tim.o
HAL_TIM_OC_DeInit                                 build/stm32f7xx_hal_tim.o
HAL_TIM_OC_DelayElapsedCallback                   build/stm32f7xx_hal_tim.o
HAL_TIM_OC_GetState                               build/stm32f7xx_hal_tim.o
HAL_TIM_OC_Init                                   build/stm32f7xx_hal_tim.o
HAL_TIM_OC_MspDeInit                              build/stm32f7xx_hal_tim.o
HAL_TIM_OC_MspInit                                build/stm32f7xx_hal_tim.o
HAL_TIM_OC_Start                                  build/stm32f7xx_hal_tim.o
HAL_TIM_OC_Start_DMA                              build/stm32f7xx_hal_tim.o
HAL_TIM_OC_Start_IT                               build/stm32f7xx_hal_tim.o
HAL_TIM_OC_Stop                                   build/stm32f7xx_hal_tim.o
HAL_TIM_OC_Stop_DMA                               build/stm32f7xx_hal_tim.o
HAL_TIM_OC_Stop_IT                                build/stm32f7xx_hal_tim.o
HAL_TIM_OnePulse_ConfigChannel                    build/stm32f7xx_hal_tim.o
HAL_TIM_OnePulse_DeInit                           build/stm32f7xx_hal_tim.o
HAL_TIM_OnePulse_GetState                         build/stm32f7xx_hal_tim.o
HAL_TIM_OnePulse_Init                             build/stm32f7xx_hal_tim.o
HAL_TIM_OnePulse_MspDeInit                        build/stm32f7xx_hal_tim.o
HAL_TIM_OnePulse_MspInit                          build/stm32f7xx_hal_tim.o
HAL_TIM_OnePulse_Start                            build/stm32f7xx_hal_tim.o
HAL_TIM_OnePulse_Start_IT                         build/stm32f7xx_hal_tim.o
HAL_TIM_OnePulse_Stop                             build/stm32f7xx_hal_tim.o
HAL_TIM_OnePulse_Stop_IT                          build/stm32f7xx_hal_tim.o
HAL_TIM_PWM_ConfigChannel                         build/stm32f7xx_hal_tim.o
HAL_TIM_PWM_DeInit                                build/stm32f7xx_hal_tim.o
HAL_TIM_PWM_GetState                              build/stm32f7xx_hal_tim.o
HAL_TIM_PWM_Init                                  build/stm32f7xx_hal_tim.o
HAL_TIM_PWM_MspDeInit                             build/stm32f7xx_hal_tim.o
HAL_TIM_PWM_MspInit                               build/stm32f7xx_hal_tim.o
HAL_TIM_PWM_PulseFinishedCallback                 build/stm32f7xx_hal_tim.o
                                                  build/stm32f7xx_hal_tim_ex.o
HAL_TIM_PWM_PulseFinishedHalfCpltCallback         build/stm32f7xx_hal_tim.o
HAL_TIM_PWM_Start                                 build/stm32f7xx_hal_tim.o
HAL_TIM_PWM_Start_DMA                             build/stm32f7xx_hal_tim.o
HAL_TIM_PWM_Start_IT                              build/stm32f7xx_hal_tim.o
HAL_TIM_PWM_Stop                                  build/stm32f7xx_hal_tim.o
HAL_TIM_PWM_Stop_DMA                              build/stm32f7xx_hal_tim.o
HAL_TIM_PWM_Stop_IT                               build/stm32f7xx_hal_tim.o
HAL_TIM_PeriodElapsedCallback                     build/stm32f7xx_hal_tim.o
HAL_TIM_PeriodElapsedHalfCpltCallback             build/stm32f7xx_hal_tim.o
HAL_TIM_ReadCapturedValue                         build/stm32f7xx_hal_tim.o
HAL_TIM_SlaveConfigSynchro                        build/stm32f7xx_hal_tim.o
HAL_TIM_SlaveConfigSynchro_IT                     build/stm32f7xx_hal_tim.o
HAL_TIM_TriggerCallback                           build/stm32f7xx_hal_tim.o
HAL_TIM_TriggerHalfCpltCallback                   build/stm32f7xx_hal_tim.o
HAL_UARTEx_ReceiveToIdle                          build/stm32f7xx_hal_uart_ex.o
HAL_UARTEx_ReceiveToIdle_DMA                      build/stm32f7xx_hal_uart_ex.o
HAL_UARTEx_ReceiveToIdle_IT                       build/stm32f7xx_hal_uart_ex.o
HAL_UARTEx_RxEventCallback                        build/stm32f7xx_hal_uart.o
HAL_UART_Abort                                    build/stm32f7xx_hal_uart.o
HAL_UART_AbortCpltCallback                        build/stm32f7xx_hal_uart.o
HAL_UART_AbortReceive                             build/stm32f7xx_hal_uart.o
HAL_UART_AbortReceiveCpltCallback                 build/stm32f7xx_hal_uart.o
HAL_UART_AbortReceive_IT                          build/stm32f7xx_hal_uart.o
HAL_UART_AbortTransmit                            build/stm32f7xx_hal_uart.o
HAL_UART_AbortTransmitCpltCallback                build/stm32f7xx_hal_uart.o
HAL_UART_AbortTransmit_IT                         build/stm32f7xx_hal_uart.o
HAL_UART_Abort_IT                                 build/stm32f7xx_hal_uart.o
HAL_UART_DMAPause                                 build/stm32f7xx_hal_uart.o
HAL_UART_DMAResume                                build/stm32f7xx_hal_uart.o
HAL_UART_DMAStop                                  build/stm32f7xx_hal_uart.o
HAL_UART_DeInit                                   build/stm32f7xx_hal_uart.o
HAL_UART_DisableReceiverTimeout                   build/stm32f7xx_hal_uart.o
HAL_UART_EnableReceiverTimeout                    build/stm32f7xx_hal_uart.o
HAL_UART_ErrorCallback                            build/stm32f7xx_hal_uart.o
HAL_UART_GetError                                 build/stm32f7xx_hal_uart.o
HAL_UART_GetState                                 build/stm32f7xx_hal_uart.o
HAL_UART_IRQHandler                               build/stm32f7xx_hal_uart.o
HAL_UART_Init                                     build/stm32f7xx_hal_uart.o
                                                  build/logging.o
HAL_UART_MspDeInit                                build/stm32f7xx_hal_msp.o
HAL_UART_MspInit                                  build/stm32f7xx_hal_msp.o
                                                  build/stm32f7xx_hal_uart_ex.o
HAL_UART_Receive                                  build/stm32f7xx_hal_uart.o
HAL_UART_Receive_DMA                              build/stm32f7xx_hal_uart.o
HAL_UART_Receive_IT                               build/stm32f7xx_hal_uart.o
HAL_UART_ReceiverTimeout_Config                   build/stm32f7xx_hal_uart.o
HAL_UART_RxCpltCallback                           build/stm32f7xx_hal_uart.o
HAL_UART_RxHalfCpltCallback                       build/stm32f7xx_hal_uart.o
HAL_UART_Transmit                                 build/stm32f7xx_hal_uart.o
                                                  build/logging.o
HAL_UART_Transmit_DMA                             build/stm32f7xx_hal_uart.o
HAL_UART_Transmit_IT                              build/stm32f7xx_hal_uart.o
HAL_UART_TxCpltCallback                           build/stm32f7xx_hal_uart.o
HAL_UART_TxHalfCpltCallback                       build/stm32f7xx_hal_uart.o
HardFault_Handler                                 build/stm32f7xx_it.o
I2C1_ER_IRQHandler                                build/startup_stm32f746xx.o
I2C1_EV_IRQHandler                                build/startup_stm32f746xx.o
I2C2_ER_IRQHandler                                build/startup_stm32f746xx.o
I2C2_EV_IRQHandler                                build/startup_stm32f746xx.o
I2C3_ER_IRQHandler                                build/startup_stm32f746xx.o
I2C3_EV_IRQHandler                                build/startup_stm32f746xx.o
I2C4_ER_IRQHandler                                build/startup_stm32f746xx.o
I2C4_EV_IRQHandler                                build/startup_stm32f746xx.o
LPTIM1_IRQHandler                                 build/startup_stm32f746xx.o
LTDC_ER_IRQHandler                                build/startup_stm32f746xx.o
LTDC_IRQHandler                                   build/startup_stm32f746xx.o
LedTask_attributes                                build/main.o
LoggerTask_attributes                             build/logging.o
MemManage_Handler                                 build/stm32f7xx_it.o
NMI_Handler                                       build/stm32f7xx_it.o
OTG_FS_IRQHandler                                 build/startup_stm32f746xx.o
OTG_FS_WKUP_IRQHandler                            build/startup_stm32f746xx.o
OTG_HS_EP1_IN_IRQHandler                          build/startup_stm32f746xx.o
OTG_HS_EP1_OUT_IRQHandler                         build/startup_stm32f746xx.o
OTG_HS_IRQHandler                                 build/startup_stm32f746xx.o
OTG_HS_WKUP_IRQHandler                            build/startup_stm32f746xx.o
PVD_IRQHandler                                    build/startup_stm32f746xx.o
PendSV_Handler                                    build/port.o
QUADSPI_IRQHandler                                build/startup_stm32f746xx.o
RCC_IRQHandler                                    build/startup_stm32f746xx.o
RNG_IRQHandler                                    build/startup_stm32f746xx.o
RTC_Alarm_IRQHandler                              build/startup_stm32f746xx.o
RTC_WKUP_IRQHandler                               build/startup_stm32f746xx.o
Reset_Handler                                     build/startup_stm32f746xx.o
Rx_Buff                                           build/NetworkInterface.o
SAI1_IRQHandler                                   build/startup_stm32f746xx.o
SAI2_IRQHandler                                   build/startup_stm32f746xx.o
SDMMC1_IRQHandler                                 build/startup_stm32f746xx.o
SPDIF_RX_IRQHandler                               build/startup_stm32f746xx.o
SPI1_IRQHandler                                   build/startup_stm32f746xx.o
SPI2_IRQHandler                                   build/startup_stm32f746xx.o
SPI3_IRQHandler                                   build/startup_stm32f746xx.o
SPI4_IRQHandler                                   build/startup_stm32f746xx.o
SPI5_IRQHandler                                   build/startup_stm32f746xx.o
SPI6_IRQHandler                                   build/startup_stm32f746xx.o
SVC_Handler                                       build/port.o
StartupTask_attributes                            build/main.o
SysTick_Handler                                   build/stm32f7xx_it.o
SystemCoreClock                                   build/system_stm32f7xx.o
                                                  build/stm32fxx_hal_eth.o
                                                  build/cmsis_os2.o
                                                  build/port.o
                                                  build/stm32f7xx_hal_dma.o
                                                  build/stm32f7xx_hal_rcc.o
                                                  build/stm32f7xx_hal.o
SystemCoreClockUpdate                             build/system_stm32f7xx.o
SystemInit                                        build/system_stm32f7xx.o
                                                  build/startup_stm32f746xx.o
TAMP_STAMP_IRQHandler                             build/startup_stm32f746xx.o
TIM1_BRK_TIM9_IRQHandler                          build/startup_stm32f746xx.o
TIM1_CC_IRQHandler                                build/startup_stm32f746xx.o
TIM1_TRG_COM_TIM11_IRQHandler                     build/startup_stm32f746xx.o
TIM1_UP_TIM10_IRQHandler                          build/startup_stm32f746xx.o
TIM2_IRQHandler                                   build/startup_stm32f746xx.o
TIM3_IRQHandler                                   build/startup_stm32f746xx.o
TIM4_IRQHandler                                   build/startup_stm32f746xx.o
TIM5_IRQHandler                                   build/startup_stm32f746xx.o
TIM6_DAC_IRQHandler                               build/startup_stm32f746xx.o
TIM7_IRQHandler                                   build/startup_stm32f746xx.o
TIM8_BRK_TIM12_IRQHandler                         build/startup_stm32f746xx.o
TIM8_CC_IRQHandler                                build/startup_stm32f746xx.o
TIM8_TRG_COM_TIM14_IRQHandler                     build/startup_stm32f746xx.o
TIM8_UP_TIM13_IRQHandler                          build/stm32f7xx_it.o
TIMEx_DMACommutationCplt                          build/stm32f7xx_hal_tim_ex.o
                                                  build/stm32f7xx_hal_tim.o
TIMEx_DMACommutationHalfCplt                      build/stm32f7xx_hal_tim_ex.o
                                                  build/stm32f7xx_hal_tim.o
TIM_Base_SetConfig                                build/stm32f7xx_hal_tim.o
                                                  build/stm32f7xx_hal_tim_ex.o
TIM_CCxChannelCmd                                 build/stm32f7xx_hal_tim.o
                                                  build/stm32f7xx_hal_tim_ex.o
TIM_DMACaptureCplt                                build/stm32f7xx_hal_tim.o
                                                  build/stm32f7xx_hal_tim_ex.o
TIM_DMACaptureHalfCplt                            build/stm32f7xx_hal_tim.o
                                                  build/stm32f7xx_hal_tim_ex.o
TIM_DMADelayPulseHalfCplt                         build/stm32f7xx_hal_tim.o
                                                  build/stm32f7xx_hal_tim_ex.o
TIM_DMAError                                      build/stm32f7xx_hal_tim.o
                                                  build/stm32f7xx_hal_tim_ex.o
TIM_ETR_SetConfig                                 build/stm32f7xx_hal_tim.o
TIM_OC2_SetConfig                                 build/stm32f7xx_hal_tim.o
                                                  build/stm32f7xx_hal_tim_ex.o
TIM_TI1_SetConfig                                 build/stm32f7xx_hal_tim.o
                                                  build/stm32f7xx_hal_tim_ex.o
Tx_Buff                                           build/NetworkInterface.o
UART4_IRQHandler                                  build/startup_stm32f746xx.o
UART5_IRQHandler                                  build/startup_stm32f746xx.o
UART7_IRQHandler                                  build/startup_stm32f746xx.o
UART8_IRQHandler                                  build/startup_stm32f746xx.o
UART_AdvFeatureConfig                             build/stm32f7xx_hal_uart.o
                                                  build/stm32f7xx_hal_uart_ex.o
UART_CheckIdleState                               build/stm32f7xx_hal_uart.o
                                                  build/stm32f7xx_hal_uart_ex.o
UART_SetConfig                                    build/stm32f7xx_hal_uart.o
                                                  build/stm32f7xx_hal_uart_ex.o
UART_Start_Receive_DMA                            build/stm32f7xx_hal_uart.o
                                                  build/stm32f7xx_hal_uart_ex.o
UART_Start_Receive_IT                             build/stm32f7xx_hal_uart.o
                                                  build/stm32f7xx_hal_uart_ex.o
UART_WaitOnFlagUntilTimeout                       build/stm32f7xx_hal_uart.o
USART1_IRQHandler                                 build/startup_stm32f746xx.o
USART2_IRQHandler                                 build/startup_stm32f746xx.o
USART3_IRQHandler                                 build/startup_stm32f746xx.o
USART6_IRQHandler                                 build/startup_stm32f746xx.o
UsageFault_Handler                                build/stm32f7xx_it.o
WWDG_IRQHandler                                   build/startup_stm32f746xx.o
__aeabi_idiv0                                     /usr/local/Caskroom/gcc-arm-embedded/9-2019-q4-major/gcc-arm-none-eabi-9-2019-q4-major/bin/../lib/gcc/arm-none-eabi/9.2.1/thumb/v7e-m+fp/hard/libgcc.a(_dvmd_tls.o)
__aeabi_ldiv0                                     /usr/local/Caskroom/gcc-arm-embedded/9-2019-q4-major/gcc-arm-none-eabi-9-2019-q4-major/bin/../lib/gcc/arm-none-eabi/9.2.1/thumb/v7e-m+fp/hard/libgcc.a(_dvmd_tls.o)
                                                  /usr/local/Caskroom/gcc-arm-embedded/9-2019-q4-major/gcc-arm-none-eabi-9-2019-q4-major/bin/../lib/gcc/arm-none-eabi/9.2.1/thumb/v7e-m+fp/hard/libgcc.a(_aeabi_uldivmod.o)
__aeabi_uldivmod                                  /usr/local/Caskroom/gcc-arm-embedded/9-2019-q4-major/gcc-arm-none-eabi-9-2019-q4-major/bin/../lib/gcc/arm-none-eabi/9.2.1/thumb/v7e-m+fp/hard/libgcc.a(_aeabi_uldivmod.o)
                                                  build/stm32f7xx_hal_rcc.o
__bss_end__                                       /usr/local/Caskroom/gcc-arm-embedded/9-2019-q4-major/gcc-arm-none-eabi-9-2019-q4-major/bin/../lib/gcc/arm-none-eabi/9.2.1/../../../../arm-none-eabi/lib/thumb/v7e-m+fp/hard/crt0.o
__bss_start__                                     /usr/local/Caskroom/gcc-arm-embedded/9-2019-q4-major/gcc-arm-none-eabi-9-2019-q4-major/bin/../lib/gcc/arm-none-eabi/9.2.1/../../../../arm-none-eabi/lib/thumb/v7e-m+fp/hard/crt0.o
__call_exitprocs                                  /usr/local/Caskroom/gcc-arm-embedded/9-2019-q4-major/gcc-arm-none-eabi-9-2019-q4-major/bin/../lib/gcc/arm-none-eabi/9.2.1/../../../../arm-none-eabi/lib/thumb/v7e-m+fp/hard/libc_nano.a(lib_a-exit.o)
__deregister_frame_info                           /usr/local/Caskroom/gcc-arm-embedded/9-2019-q4-major/gcc-arm-none-eabi-9-2019-q4-major/bin/../lib/gcc/arm-none-eabi/9.2.1/thumb/v7e-m+fp/hard/crtbegin.o
__dso_handle                                      /usr/local/Caskroom/gcc-arm-embedded/9-2019-q4-major/gcc-arm-none-eabi-9-2019-q4-major/bin/../lib/gcc/arm-none-eabi/9.2.1/thumb/v7e-m+fp/hard/crtbegin.o
__init_array_end                                  /usr/local/Caskroom/gcc-arm-embedded/9-2019-q4-major/gcc-arm-none-eabi-9-2019-q4-major/bin/../lib/gcc/arm-none-eabi/9.2.1/../../../../arm-none-eabi/lib/thumb/v7e-m+fp/hard/libc_nano.a(lib_a-init.o)
__init_array_start                                /usr/local/Caskroom/gcc-arm-embedded/9-2019-q4-major/gcc-arm-none-eabi-9-2019-q4-major/bin/../lib/gcc/arm-none-eabi/9.2.1/../../../../arm-none-eabi/lib/thumb/v7e-m+fp/hard/libc_nano.a(lib_a-init.o)
__libc_fini_array                                 /usr/local/Caskroom/gcc-arm-embedded/9-2019-q4-major/gcc-arm-none-eabi-9-2019-q4-major/bin/../lib/gcc/arm-none-eabi/9.2.1/../../../../arm-none-eabi/lib/thumb/v7e-m+fp/hard/crt0.o
__libc_init_array                                 /usr/local/Caskroom/gcc-arm-embedded/9-2019-q4-major/gcc-arm-none-eabi-9-2019-q4-major/bin/../lib/gcc/arm-none-eabi/9.2.1/../../../../arm-none-eabi/lib/thumb/v7e-m+fp/hard/libc_nano.a(lib_a-init.o)
                                                  build/startup_stm32f746xx.o
                                                  /usr/local/Caskroom/gcc-arm-embedded/9-2019-q4-major/gcc-arm-none-eabi-9-2019-q4-major/bin/../lib/gcc/arm-none-eabi/9.2.1/../../../../arm-none-eabi/lib/thumb/v7e-m+fp/hard/crt0.o
__lock___arc4random_mutex                         /usr/local/Caskroom/gcc-arm-embedded/9-2019-q4-major/gcc-arm-none-eabi-9-2019-q4-major/bin/../lib/gcc/arm-none-eabi/9.2.1/../../../../arm-none-eabi/lib/thumb/v7e-m+fp/hard/libc_nano.a(lib_a-lock.o)
__lock___at_quick_exit_mutex                      /usr/local/Caskroom/gcc-arm-embedded/9-2019-q4-major/gcc-arm-none-eabi-9-2019-q4-major/bin/../lib/gcc/arm-none-eabi/9.2.1/../../../../arm-none-eabi/lib/thumb/v7e-m+fp/hard/libc_nano.a(lib_a-lock.o)
__lock___atexit_recursive_mutex                   /usr/local/Caskroom/gcc-arm-embedded/9-2019-q4-major/gcc-arm-none-eabi-9-2019-q4-major/bin/../lib/gcc/arm-none-eabi/9.2.1/../../../../arm-none-eabi/lib/thumb/v7e-m+fp/hard/libc_nano.a(lib_a-lock.o)
__lock___dd_hash_mutex                            /usr/local/Caskroom/gcc-arm-embedded/9-2019-q4-major/gcc-arm-none-eabi-9-2019-q4-major/bin/../lib/gcc/arm-none-eabi/9.2.1/../../../../arm-none-eabi/lib/thumb/v7e-m+fp/hard/libc_nano.a(lib_a-lock.o)
__lock___env_recursive_mutex                      /usr/local/Caskroom/gcc-arm-embedded/9-2019-q4-major/gcc-arm-none-eabi-9-2019-q4-major/bin/../lib/gcc/arm-none-eabi/9.2.1/../../../../arm-none-eabi/lib/thumb/v7e-m+fp/hard/libc_nano.a(lib_a-lock.o)
__lock___malloc_recursive_mutex                   /usr/local/Caskroom/gcc-arm-embedded/9-2019-q4-major/gcc-arm-none-eabi-9-2019-q4-major/bin/../lib/gcc/arm-none-eabi/9.2.1/../../../../arm-none-eabi/lib/thumb/v7e-m+fp/hard/libc_nano.a(lib_a-lock.o)
                                                  /usr/local/Caskroom/gcc-arm-embedded/9-2019-q4-major/gcc-arm-none-eabi-9-2019-q4-major/bin/../lib/gcc/arm-none-eabi/9.2.1/../../../../arm-none-eabi/lib/thumb/v7e-m+fp/hard/libc_nano.a(lib_a-mlock.o)
__lock___sfp_recursive_mutex                      /usr/local/Caskroom/gcc-arm-embedded/9-2019-q4-major/gcc-arm-none-eabi-9-2019-q4-major/bin/../lib/gcc/arm-none-eabi/9.2.1/../../../../arm-none-eabi/lib/thumb/v7e-m+fp/hard/libc_nano.a(lib_a-lock.o)
__lock___sinit_recursive_mutex                    /usr/local/Caskroom/gcc-arm-embedded/9-2019-q4-major/gcc-arm-none-eabi-9-2019-q4-major/bin/../lib/gcc/arm-none-eabi/9.2.1/../../../../arm-none-eabi/lib/thumb/v7e-m+fp/hard/libc_nano.a(lib_a-lock.o)
__lock___tz_mutex                                 /usr/local/Caskroom/gcc-arm-embedded/9-2019-q4-major/gcc-arm-none-eabi-9-2019-q4-major/bin/../lib/gcc/arm-none-eabi/9.2.1/../../../../arm-none-eabi/lib/thumb/v7e-m+fp/hard/libc_nano.a(lib_a-lock.o)
__malloc_free_list                                /usr/local/Caskroom/gcc-arm-embedded/9-2019-q4-major/gcc-arm-none-eabi-9-2019-q4-major/bin/../lib/gcc/arm-none-eabi/9.2.1/../../../../arm-none-eabi/lib/thumb/v7e-m+fp/hard/libc_nano.a(lib_a-nano-mallocr.o)
                                                  /usr/local/Caskroom/gcc-arm-embedded/9-2019-q4-major/gcc-arm-none-eabi-9-2019-q4-major/bin/../lib/gcc/arm-none-eabi/9.2.1/../../../../arm-none-eabi/lib/thumb/v7e-m+fp/hard/libc_nano.a(lib_a-nano-freer.o)
__malloc_lock                                     /usr/local/Caskroom/gcc-arm-embedded/9-2019-q4-major/gcc-arm-none-eabi-9-2019-q4-major/bin/../lib/gcc/arm-none-eabi/9.2.1/../../../../arm-none-eabi/lib/thumb/v7e-m+fp/hard/libc_nano.a(lib_a-mlock.o)
                                                  /usr/local/Caskroom/gcc-arm-embedded/9-2019-q4-major/gcc-arm-none-eabi-9-2019-q4-major/bin/../lib/gcc/arm-none-eabi/9.2.1/../../../../arm-none-eabi/lib/thumb/v7e-m+fp/hard/libc_nano.a(lib_a-nano-mallocr.o)
                                                  /usr/local/Caskroom/gcc-arm-embedded/9-2019-q4-major/gcc-arm-none-eabi-9-2019-q4-major/bin/../lib/gcc/arm-none-eabi/9.2.1/../../../../arm-none-eabi/lib/thumb/v7e-m+fp/hard/libc_nano.a(lib_a-nano-freer.o)
__malloc_sbrk_start                               /usr/local/Caskroom/gcc-arm-embedded/9-2019-q4-major/gcc-arm-none-eabi-9-2019-q4-major/bin/../lib/gcc/arm-none-eabi/9.2.1/../../../../arm-none-eabi/lib/thumb/v7e-m+fp/hard/libc_nano.a(lib_a-nano-mallocr.o)
__malloc_unlock                                   /usr/local/Caskroom/gcc-arm-embedded/9-2019-q4-major/gcc-arm-none-eabi-9-2019-q4-major/bin/../lib/gcc/arm-none-eabi/9.2.1/../../../../arm-none-eabi/lib/thumb/v7e-m+fp/hard/libc_nano.a(lib_a-mlock.o)
                                                  /usr/local/Caskroom/gcc-arm-embedded/9-2019-q4-major/gcc-arm-none-eabi-9-2019-q4-major/bin/../lib/gcc/arm-none-eabi/9.2.1/../../../../arm-none-eabi/lib/thumb/v7e-m+fp/hard/libc_nano.a(lib_a-nano-mallocr.o)
                                                  /usr/local/Caskroom/gcc-arm-embedded/9-2019-q4-major/gcc-arm-none-eabi-9-2019-q4-major/bin/../lib/gcc/arm-none-eabi/9.2.1/../../../../arm-none-eabi/lib/thumb/v7e-m+fp/hard/libc_nano.a(lib_a-nano-freer.o)
__preinit_array_end                               /usr/local/Caskroom/gcc-arm-embedded/9-2019-q4-major/gcc-arm-none-eabi-9-2019-q4-major/bin/../lib/gcc/arm-none-eabi/9.2.1/../../../../arm-none-eabi/lib/thumb/v7e-m+fp/hard/libc_nano.a(lib_a-init.o)
__preinit_array_start                             /usr/local/Caskroom/gcc-arm-embedded/9-2019-q4-major/gcc-arm-none-eabi-9-2019-q4-major/bin/../lib/gcc/arm-none-eabi/9.2.1/../../../../arm-none-eabi/lib/thumb/v7e-m+fp/hard/libc_nano.a(lib_a-init.o)
__register_frame_info                             /usr/local/Caskroom/gcc-arm-embedded/9-2019-q4-major/gcc-arm-none-eabi-9-2019-q4-major/bin/../lib/gcc/arm-none-eabi/9.2.1/thumb/v7e-m+fp/hard/crtbegin.o
__retarget_lock_acquire                           /usr/local/Caskroom/gcc-arm-embedded/9-2019-q4-major/gcc-arm-none-eabi-9-2019-q4-major/bin/../lib/gcc/arm-none-eabi/9.2.1/../../../../arm-none-eabi/lib/thumb/v7e-m+fp/hard/libc_nano.a(lib_a-lock.o)
__retarget_lock_acquire_recursive                 /usr/local/Caskroom/gcc-arm-embedded/9-2019-q4-major/gcc-arm-none-eabi-9-2019-q4-major/bin/../lib/gcc/arm-none-eabi/9.2.1/../../../../arm-none-eabi/lib/thumb/v7e-m+fp/hard/libc_nano.a(lib_a-lock.o)
                                                  /usr/local/Caskroom/gcc-arm-embedded/9-2019-q4-major/gcc-arm-none-eabi-9-2019-q4-major/bin/../lib/gcc/arm-none-eabi/9.2.1/../../../../arm-none-eabi/lib/thumb/v7e-m+fp/hard/libc_nano.a(lib_a-mlock.o)
__retarget_lock_close                             /usr/local/Caskroom/gcc-arm-embedded/9-2019-q4-major/gcc-arm-none-eabi-9-2019-q4-major/bin/../lib/gcc/arm-none-eabi/9.2.1/../../../../arm-none-eabi/lib/thumb/v7e-m+fp/hard/libc_nano.a(lib_a-lock.o)
__retarget_lock_close_recursive                   /usr/local/Caskroom/gcc-arm-embedded/9-2019-q4-major/gcc-arm-none-eabi-9-2019-q4-major/bin/../lib/gcc/arm-none-eabi/9.2.1/../../../../arm-none-eabi/lib/thumb/v7e-m+fp/hard/libc_nano.a(lib_a-lock.o)
__retarget_lock_init                              /usr/local/Caskroom/gcc-arm-embedded/9-2019-q4-major/gcc-arm-none-eabi-9-2019-q4-major/bin/../lib/gcc/arm-none-eabi/9.2.1/../../../../arm-none-eabi/lib/thumb/v7e-m+fp/hard/libc_nano.a(lib_a-lock.o)
__retarget_lock_init_recursive                    /usr/local/Caskroom/gcc-arm-embedded/9-2019-q4-major/gcc-arm-none-eabi-9-2019-q4-major/bin/../lib/gcc/arm-none-eabi/9.2.1/../../../../arm-none-eabi/lib/thumb/v7e-m+fp/hard/libc_nano.a(lib_a-lock.o)
__retarget_lock_release                           /usr/local/Caskroom/gcc-arm-embedded/9-2019-q4-major/gcc-arm-none-eabi-9-2019-q4-major/bin/../lib/gcc/arm-none-eabi/9.2.1/../../../../arm-none-eabi/lib/thumb/v7e-m+fp/hard/libc_nano.a(lib_a-lock.o)
__retarget_lock_release_recursive                 /usr/local/Caskroom/gcc-arm-embedded/9-2019-q4-major/gcc-arm-none-eabi-9-2019-q4-major/bin/../lib/gcc/arm-none-eabi/9.2.1/../../../../arm-none-eabi/lib/thumb/v7e-m+fp/hard/libc_nano.a(lib_a-lock.o)
                                                  /usr/local/Caskroom/gcc-arm-embedded/9-2019-q4-major/gcc-arm-none-eabi-9-2019-q4-major/bin/../lib/gcc/arm-none-eabi/9.2.1/../../../../arm-none-eabi/lib/thumb/v7e-m+fp/hard/libc_nano.a(lib_a-mlock.o)
__retarget_lock_try_acquire                       /usr/local/Caskroom/gcc-arm-embedded/9-2019-q4-major/gcc-arm-none-eabi-9-2019-q4-major/bin/../lib/gcc/arm-none-eabi/9.2.1/../../../../arm-none-eabi/lib/thumb/v7e-m+fp/hard/libc_nano.a(lib_a-lock.o)
__retarget_lock_try_acquire_recursive             /usr/local/Caskroom/gcc-arm-embedded/9-2019-q4-major/gcc-arm-none-eabi-9-2019-q4-major/bin/../lib/gcc/arm-none-eabi/9.2.1/../../../../arm-none-eabi/lib/thumb/v7e-m+fp/hard/libc_nano.a(lib_a-lock.o)
__sf_fake_stderr                                  /usr/local/Caskroom/gcc-arm-embedded/9-2019-q4-major/gcc-arm-none-eabi-9-2019-q4-major/bin/../lib/gcc/arm-none-eabi/9.2.1/../../../../arm-none-eabi/lib/thumb/v7e-m+fp/hard/libc_nano.a(lib_a-impure.o)
__sf_fake_stdin                                   /usr/local/Caskroom/gcc-arm-embedded/9-2019-q4-major/gcc-arm-none-eabi-9-2019-q4-major/bin/../lib/gcc/arm-none-eabi/9.2.1/../../../../arm-none-eabi/lib/thumb/v7e-m+fp/hard/libc_nano.a(lib_a-impure.o)
__sf_fake_stdout                                  /usr/local/Caskroom/gcc-arm-embedded/9-2019-q4-major/gcc-arm-none-eabi-9-2019-q4-major/bin/../lib/gcc/arm-none-eabi/9.2.1/../../../../arm-none-eabi/lib/thumb/v7e-m+fp/hard/libc_nano.a(lib_a-impure.o)
__ssprint_r                                       /usr/local/Caskroom/gcc-arm-embedded/9-2019-q4-major/gcc-arm-none-eabi-9-2019-q4-major/bin/../lib/gcc/arm-none-eabi/9.2.1/../../../../arm-none-eabi/lib/thumb/v7e-m+fp/hard/libc_nano.a(lib_a-nano-svfprintf.o)
__ssputs_r                                        /usr/local/Caskroom/gcc-arm-embedded/9-2019-q4-major/gcc-arm-none-eabi-9-2019-q4-major/bin/../lib/gcc/arm-none-eabi/9.2.1/../../../../arm-none-eabi/lib/thumb/v7e-m+fp/hard/libc_nano.a(lib_a-nano-svfprintf.o)
__stack                                           /usr/local/Caskroom/gcc-arm-embedded/9-2019-q4-major/gcc-arm-none-eabi-9-2019-q4-major/bin/../lib/gcc/arm-none-eabi/9.2.1/../../../../arm-none-eabi/lib/thumb/v7e-m+fp/hard/crt0.o
__udivmoddi4                                      /usr/local/Caskroom/gcc-arm-embedded/9-2019-q4-major/gcc-arm-none-eabi-9-2019-q4-major/bin/../lib/gcc/arm-none-eabi/9.2.1/thumb/v7e-m+fp/hard/libgcc.a(_udivmoddi4.o)
                                                  /usr/local/Caskroom/gcc-arm-embedded/9-2019-q4-major/gcc-arm-none-eabi-9-2019-q4-major/bin/../lib/gcc/arm-none-eabi/9.2.1/thumb/v7e-m+fp/hard/libgcc.a(_aeabi_uldivmod.o)
_ebss                                             build/startup_stm32f746xx.o
_edata                                            build/startup_stm32f746xx.o
_estack                                           build/startup_stm32f746xx.o
_exit                                             /usr/local/Caskroom/gcc-arm-embedded/9-2019-q4-major/gcc-arm-none-eabi-9-2019-q4-major/bin/../lib/gcc/arm-none-eabi/9.2.1/../../../../arm-none-eabi/lib/thumb/v7e-m+fp/hard/libnosys.a(_exit.o)
                                                  /usr/local/Caskroom/gcc-arm-embedded/9-2019-q4-major/gcc-arm-none-eabi-9-2019-q4-major/bin/../lib/gcc/arm-none-eabi/9.2.1/../../../../arm-none-eabi/lib/thumb/v7e-m+fp/hard/libc_nano.a(lib_a-exit.o)
_fini                                             /usr/local/Caskroom/gcc-arm-embedded/9-2019-q4-major/gcc-arm-none-eabi-9-2019-q4-major/bin/../lib/gcc/arm-none-eabi/9.2.1/thumb/v7e-m+fp/hard/crti.o
_free_r                                           /usr/local/Caskroom/gcc-arm-embedded/9-2019-q4-major/gcc-arm-none-eabi-9-2019-q4-major/bin/../lib/gcc/arm-none-eabi/9.2.1/../../../../arm-none-eabi/lib/thumb/v7e-m+fp/hard/libc_nano.a(lib_a-nano-freer.o)
                                                  /usr/local/Caskroom/gcc-arm-embedded/9-2019-q4-major/gcc-arm-none-eabi-9-2019-q4-major/bin/../lib/gcc/arm-none-eabi/9.2.1/../../../../arm-none-eabi/lib/thumb/v7e-m+fp/hard/libc_nano.a(lib_a-reent.o)
                                                  /usr/local/Caskroom/gcc-arm-embedded/9-2019-q4-major/gcc-arm-none-eabi-9-2019-q4-major/bin/../lib/gcc/arm-none-eabi/9.2.1/../../../../arm-none-eabi/lib/thumb/v7e-m+fp/hard/libc_nano.a(lib_a-nano-reallocr.o)
                                                  /usr/local/Caskroom/gcc-arm-embedded/9-2019-q4-major/gcc-arm-none-eabi-9-2019-q4-major/bin/../lib/gcc/arm-none-eabi/9.2.1/../../../../arm-none-eabi/lib/thumb/v7e-m+fp/hard/libc_nano.a(lib_a-nano-svfprintf.o)
_global_impure_ptr                                /usr/local/Caskroom/gcc-arm-embedded/9-2019-q4-major/gcc-arm-none-eabi-9-2019-q4-major/bin/../lib/gcc/arm-none-eabi/9.2.1/../../../../arm-none-eabi/lib/thumb/v7e-m+fp/hard/libc_nano.a(lib_a-impure.o)
                                                  /usr/local/Caskroom/gcc-arm-embedded/9-2019-q4-major/gcc-arm-none-eabi-9-2019-q4-major/bin/../lib/gcc/arm-none-eabi/9.2.1/../../../../arm-none-eabi/lib/thumb/v7e-m+fp/hard/libc_nano.a(lib_a-exit.o)
_impure_ptr                                       /usr/local/Caskroom/gcc-arm-embedded/9-2019-q4-major/gcc-arm-none-eabi-9-2019-q4-major/bin/../lib/gcc/arm-none-eabi/9.2.1/../../../../arm-none-eabi/lib/thumb/v7e-m+fp/hard/libc_nano.a(lib_a-impure.o)
                                                  /usr/local/Caskroom/gcc-arm-embedded/9-2019-q4-major/gcc-arm-none-eabi-9-2019-q4-major/bin/../lib/gcc/arm-none-eabi/9.2.1/../../../../arm-none-eabi/lib/thumb/v7e-m+fp/hard/libc_nano.a(lib_a-reent.o)
                                                  /usr/local/Caskroom/gcc-arm-embedded/9-2019-q4-major/gcc-arm-none-eabi-9-2019-q4-major/bin/../lib/gcc/arm-none-eabi/9.2.1/../../../../arm-none-eabi/lib/thumb/v7e-m+fp/hard/libc_nano.a(lib_a-vsnprintf.o)
                                                  /usr/local/Caskroom/gcc-arm-embedded/9-2019-q4-major/gcc-arm-none-eabi-9-2019-q4-major/bin/../lib/gcc/arm-none-eabi/9.2.1/../../../../arm-none-eabi/lib/thumb/v7e-m+fp/hard/libc_nano.a(lib_a-sprintf.o)
                                                  /usr/local/Caskroom/gcc-arm-embedded/9-2019-q4-major/gcc-arm-none-eabi-9-2019-q4-major/bin/../lib/gcc/arm-none-eabi/9.2.1/../../../../arm-none-eabi/lib/thumb/v7e-m+fp/hard/libc_nano.a(lib_a-snprintf.o)
_init                                             /usr/local/Caskroom/gcc-arm-embedded/9-2019-q4-major/gcc-arm-none-eabi-9-2019-q4-major/bin/../lib/gcc/arm-none-eabi/9.2.1/thumb/v7e-m+fp/hard/crti.o
                                                  /usr/local/Caskroom/gcc-arm-embedded/9-2019-q4-major/gcc-arm-none-eabi-9-2019-q4-major/bin/../lib/gcc/arm-none-eabi/9.2.1/../../../../arm-none-eabi/lib/thumb/v7e-m+fp/hard/libc_nano.a(lib_a-init.o)
_mainCRTStartup                                   /usr/local/Caskroom/gcc-arm-embedded/9-2019-q4-major/gcc-arm-none-eabi-9-2019-q4-major/bin/../lib/gcc/arm-none-eabi/9.2.1/../../../../arm-none-eabi/lib/thumb/v7e-m+fp/hard/crt0.o
_malloc_r                                         /usr/local/Caskroom/gcc-arm-embedded/9-2019-q4-major/gcc-arm-none-eabi-9-2019-q4-major/bin/../lib/gcc/arm-none-eabi/9.2.1/../../../../arm-none-eabi/lib/thumb/v7e-m+fp/hard/libc_nano.a(lib_a-nano-mallocr.o)
                                                  /usr/local/Caskroom/gcc-arm-embedded/9-2019-q4-major/gcc-arm-none-eabi-9-2019-q4-major/bin/../lib/gcc/arm-none-eabi/9.2.1/../../../../arm-none-eabi/lib/thumb/v7e-m+fp/hard/libc_nano.a(lib_a-nano-reallocr.o)
                                                  /usr/local/Caskroom/gcc-arm-embedded/9-2019-q4-major/gcc-arm-none-eabi-9-2019-q4-major/bin/../lib/gcc/arm-none-eabi/9.2.1/../../../../arm-none-eabi/lib/thumb/v7e-m+fp/hard/libc_nano.a(lib_a-nano-svfprintf.o)
_malloc_usable_size_r                             /usr/local/Caskroom/gcc-arm-embedded/9-2019-q4-major/gcc-arm-none-eabi-9-2019-q4-major/bin/../lib/gcc/arm-none-eabi/9.2.1/../../../../arm-none-eabi/lib/thumb/v7e-m+fp/hard/libc_nano.a(lib_a-nano-msizer.o)
                                                  /usr/local/Caskroom/gcc-arm-embedded/9-2019-q4-major/gcc-arm-none-eabi-9-2019-q4-major/bin/../lib/gcc/arm-none-eabi/9.2.1/../../../../arm-none-eabi/lib/thumb/v7e-m+fp/hard/libc_nano.a(lib_a-nano-reallocr.o)
_printf_common                                    /usr/local/Caskroom/gcc-arm-embedded/9-2019-q4-major/gcc-arm-none-eabi-9-2019-q4-major/bin/../lib/gcc/arm-none-eabi/9.2.1/../../../../arm-none-eabi/lib/thumb/v7e-m+fp/hard/libc_nano.a(lib_a-nano-vfprintf_i.o)
_printf_float                                     /usr/local/Caskroom/gcc-arm-embedded/9-2019-q4-major/gcc-arm-none-eabi-9-2019-q4-major/bin/../lib/gcc/arm-none-eabi/9.2.1/../../../../arm-none-eabi/lib/thumb/v7e-m+fp/hard/libc_nano.a(lib_a-nano-svfprintf.o)
_printf_i                                         /usr/local/Caskroom/gcc-arm-embedded/9-2019-q4-major/gcc-arm-none-eabi-9-2019-q4-major/bin/../lib/gcc/arm-none-eabi/9.2.1/../../../../arm-none-eabi/lib/thumb/v7e-m+fp/hard/libc_nano.a(lib_a-nano-vfprintf_i.o)
                                                  /usr/local/Caskroom/gcc-arm-embedded/9-2019-q4-major/gcc-arm-none-eabi-9-2019-q4-major/bin/../lib/gcc/arm-none-eabi/9.2.1/../../../../arm-none-eabi/lib/thumb/v7e-m+fp/hard/libc_nano.a(lib_a-nano-svfprintf.o)
_realloc_r                                        /usr/local/Caskroom/gcc-arm-embedded/9-2019-q4-major/gcc-arm-none-eabi-9-2019-q4-major/bin/../lib/gcc/arm-none-eabi/9.2.1/../../../../arm-none-eabi/lib/thumb/v7e-m+fp/hard/libc_nano.a(lib_a-nano-reallocr.o)
                                                  /usr/local/Caskroom/gcc-arm-embedded/9-2019-q4-major/gcc-arm-none-eabi-9-2019-q4-major/bin/../lib/gcc/arm-none-eabi/9.2.1/../../../../arm-none-eabi/lib/thumb/v7e-m+fp/hard/libc_nano.a(lib_a-nano-svfprintf.o)
_reclaim_reent                                    /usr/local/Caskroom/gcc-arm-embedded/9-2019-q4-major/gcc-arm-none-eabi-9-2019-q4-major/bin/../lib/gcc/arm-none-eabi/9.2.1/../../../../arm-none-eabi/lib/thumb/v7e-m+fp/hard/libc_nano.a(lib_a-reent.o)
_sbrk                                             /usr/local/Caskroom/gcc-arm-embedded/9-2019-q4-major/gcc-arm-none-eabi-9-2019-q4-major/bin/../lib/gcc/arm-none-eabi/9.2.1/../../../../arm-none-eabi/lib/thumb/v7e-m+fp/hard/libnosys.a(sbrk.o)
                                                  /usr/local/Caskroom/gcc-arm-embedded/9-2019-q4-major/gcc-arm-none-eabi-9-2019-q4-major/bin/../lib/gcc/arm-none-eabi/9.2.1/../../../../arm-none-eabi/lib/thumb/v7e-m+fp/hard/libc_nano.a(lib_a-sbrkr.o)
_sbrk_r                                           /usr/local/Caskroom/gcc-arm-embedded/9-2019-q4-major/gcc-arm-none-eabi-9-2019-q4-major/bin/../lib/gcc/arm-none-eabi/9.2.1/../../../../arm-none-eabi/lib/thumb/v7e-m+fp/hard/libc_nano.a(lib_a-sbrkr.o)
                                                  /usr/local/Caskroom/gcc-arm-embedded/9-2019-q4-major/gcc-arm-none-eabi-9-2019-q4-major/bin/../lib/gcc/arm-none-eabi/9.2.1/../../../../arm-none-eabi/lib/thumb/v7e-m+fp/hard/libc_nano.a(lib_a-nano-mallocr.o)
_sbss                                             build/startup_stm32f746xx.o
_sdata                                            build/startup_stm32f746xx.o
_sidata                                           build/startup_stm32f746xx.o
_siprintf_r                                       /usr/local/Caskroom/gcc-arm-embedded/9-2019-q4-major/gcc-arm-none-eabi-9-2019-q4-major/bin/../lib/gcc/arm-none-eabi/9.2.1/../../../../arm-none-eabi/lib/thumb/v7e-m+fp/hard/libc_nano.a(lib_a-sprintf.o)
_sniprintf_r                                      /usr/local/Caskroom/gcc-arm-embedded/9-2019-q4-major/gcc-arm-none-eabi-9-2019-q4-major/bin/../lib/gcc/arm-none-eabi/9.2.1/../../../../arm-none-eabi/lib/thumb/v7e-m+fp/hard/libc_nano.a(lib_a-snprintf.o)
_snprintf_r                                       /usr/local/Caskroom/gcc-arm-embedded/9-2019-q4-major/gcc-arm-none-eabi-9-2019-q4-major/bin/../lib/gcc/arm-none-eabi/9.2.1/../../../../arm-none-eabi/lib/thumb/v7e-m+fp/hard/libc_nano.a(lib_a-snprintf.o)
_sprintf_r                                        /usr/local/Caskroom/gcc-arm-embedded/9-2019-q4-major/gcc-arm-none-eabi-9-2019-q4-major/bin/../lib/gcc/arm-none-eabi/9.2.1/../../../../arm-none-eabi/lib/thumb/v7e-m+fp/hard/libc_nano.a(lib_a-sprintf.o)
_start                                            /usr/local/Caskroom/gcc-arm-embedded/9-2019-q4-major/gcc-arm-none-eabi-9-2019-q4-major/bin/../lib/gcc/arm-none-eabi/9.2.1/../../../../arm-none-eabi/lib/thumb/v7e-m+fp/hard/crt0.o
_svfiprintf_r                                     /usr/local/Caskroom/gcc-arm-embedded/9-2019-q4-major/gcc-arm-none-eabi-9-2019-q4-major/bin/../lib/gcc/arm-none-eabi/9.2.1/../../../../arm-none-eabi/lib/thumb/v7e-m+fp/hard/libc_nano.a(lib_a-nano-svfprintf.o)
_svfprintf_r                                      /usr/local/Caskroom/gcc-arm-embedded/9-2019-q4-major/gcc-arm-none-eabi-9-2019-q4-major/bin/../lib/gcc/arm-none-eabi/9.2.1/../../../../arm-none-eabi/lib/thumb/v7e-m+fp/hard/libc_nano.a(lib_a-nano-svfprintf.o)
                                                  /usr/local/Caskroom/gcc-arm-embedded/9-2019-q4-major/gcc-arm-none-eabi-9-2019-q4-major/bin/../lib/gcc/arm-none-eabi/9.2.1/../../../../arm-none-eabi/lib/thumb/v7e-m+fp/hard/libc_nano.a(lib_a-vsnprintf.o)
                                                  /usr/local/Caskroom/gcc-arm-embedded/9-2019-q4-major/gcc-arm-none-eabi-9-2019-q4-major/bin/../lib/gcc/arm-none-eabi/9.2.1/../../../../arm-none-eabi/lib/thumb/v7e-m+fp/hard/libc_nano.a(lib_a-sprintf.o)
                                                  /usr/local/Caskroom/gcc-arm-embedded/9-2019-q4-major/gcc-arm-none-eabi-9-2019-q4-major/bin/../lib/gcc/arm-none-eabi/9.2.1/../../../../arm-none-eabi/lib/thumb/v7e-m+fp/hard/libc_nano.a(lib_a-snprintf.o)
_vsniprintf_r                                     /usr/local/Caskroom/gcc-arm-embedded/9-2019-q4-major/gcc-arm-none-eabi-9-2019-q4-major/bin/../lib/gcc/arm-none-eabi/9.2.1/../../../../arm-none-eabi/lib/thumb/v7e-m+fp/hard/libc_nano.a(lib_a-vsnprintf.o)
_vsnprintf_r                                      /usr/local/Caskroom/gcc-arm-embedded/9-2019-q4-major/gcc-arm-none-eabi-9-2019-q4-major/bin/../lib/gcc/arm-none-eabi/9.2.1/../../../../arm-none-eabi/lib/thumb/v7e-m+fp/hard/libc_nano.a(lib_a-vsnprintf.o)
atexit                                            /usr/local/Caskroom/gcc-arm-embedded/9-2019-q4-major/gcc-arm-none-eabi-9-2019-q4-major/bin/../lib/gcc/arm-none-eabi/9.2.1/../../../../arm-none-eabi/lib/thumb/v7e-m+fp/hard/crt0.o
cleanup_glue                                      /usr/local/Caskroom/gcc-arm-embedded/9-2019-q4-major/gcc-arm-none-eabi-9-2019-q4-major/bin/../lib/gcc/arm-none-eabi/9.2.1/../../../../arm-none-eabi/lib/thumb/v7e-m+fp/hard/libc_nano.a(lib_a-reent.o)
configureTimerForRunTimeStats                     build/freertos.o
                                                  build/tasks.o
eARPGetCacheEntry                                 build/FreeRTOS_ARP.o
                                                  build/FreeRTOS_UDP_IP.o
                                                  build/FreeRTOS_TCP_IP.o
eARPProcessPacket                                 build/FreeRTOS_ARP.o
                                                  build/FreeRTOS_IP.o
eConsiderFrameForProcessing                       build/FreeRTOS_IP.o
eTaskGetState                                     build/tasks.o
                                                  build/cmsis_os2.o
end                                               /usr/local/Caskroom/gcc-arm-embedded/9-2019-q4-major/gcc-arm-none-eabi-9-2019-q4-major/bin/../lib/gcc/arm-none-eabi/9.2.1/../../../../arm-none-eabi/lib/thumb/v7e-m+fp/hard/libnosys.a(sbrk.o)
errno                                             /usr/local/Caskroom/gcc-arm-embedded/9-2019-q4-major/gcc-arm-none-eabi-9-2019-q4-major/bin/../lib/gcc/arm-none-eabi/9.2.1/../../../../arm-none-eabi/lib/thumb/v7e-m+fp/hard/libc_nano.a(lib_a-reent.o)
                                                  /usr/local/Caskroom/gcc-arm-embedded/9-2019-q4-major/gcc-arm-none-eabi-9-2019-q4-major/bin/../lib/gcc/arm-none-eabi/9.2.1/../../../../arm-none-eabi/lib/thumb/v7e-m+fp/hard/libc_nano.a(lib_a-sbrkr.o)
exit                                              /usr/local/Caskroom/gcc-arm-embedded/9-2019-q4-major/gcc-arm-none-eabi-9-2019-q4-major/bin/../lib/gcc/arm-none-eabi/9.2.1/../../../../arm-none-eabi/lib/thumb/v7e-m+fp/hard/libc_nano.a(lib_a-exit.o)
                                                  /usr/local/Caskroom/gcc-arm-embedded/9-2019-q4-major/gcc-arm-none-eabi-9-2019-q4-major/bin/../lib/gcc/arm-none-eabi/9.2.1/../../../../arm-none-eabi/lib/thumb/v7e-m+fp/hard/crt0.o
g_pfnVectors                                      build/startup_stm32f746xx.o
getRunTimeCounterValue                            build/freertos.o
                                                  build/tasks.o
hardware_init_hook                                /usr/local/Caskroom/gcc-arm-embedded/9-2019-q4-major/gcc-arm-none-eabi-9-2019-q4-major/bin/../lib/gcc/arm-none-eabi/9.2.1/../../../../arm-none-eabi/lib/thumb/v7e-m+fp/hard/crt0.o
hrng                                              build/main.o
                                                  build/freertos.o
htim13                                            build/freertos.o
                                                  build/stm32f7xx_it.o
huart                                             build/logging.o
lTCPAddRxdata                                     build/FreeRTOS_Sockets.o
                                                  build/FreeRTOS_TCP_IP.o
lTCPWindowRxCheck                                 build/FreeRTOS_TCP_WIN.o
                                                  build/FreeRTOS_TCP_IP.o
lTCPWindowTxAdd                                   build/FreeRTOS_TCP_WIN.o
                                                  build/FreeRTOS_TCP_IP.o
main                                              build/main.o
                                                  build/startup_stm32f746xx.o
                                                  /usr/local/Caskroom/gcc-arm-embedded/9-2019-q4-major/gcc-arm-none-eabi-9-2019-q4-major/bin/../lib/gcc/arm-none-eabi/9.2.1/../../../../arm-none-eabi/lib/thumb/v7e-m+fp/hard/crt0.o
memchr                                            /usr/local/Caskroom/gcc-arm-embedded/9-2019-q4-major/gcc-arm-none-eabi-9-2019-q4-major/bin/../lib/gcc/arm-none-eabi/9.2.1/../../../../arm-none-eabi/lib/thumb/v7e-m+fp/hard/libc_nano.a(lib_a-memchr.o)
                                                  /usr/local/Caskroom/gcc-arm-embedded/9-2019-q4-major/gcc-arm-none-eabi-9-2019-q4-major/bin/../lib/gcc/arm-none-eabi/9.2.1/../../../../arm-none-eabi/lib/thumb/v7e-m+fp/hard/libc_nano.a(lib_a-nano-vfprintf_i.o)
                                                  /usr/local/Caskroom/gcc-arm-embedded/9-2019-q4-major/gcc-arm-none-eabi-9-2019-q4-major/bin/../lib/gcc/arm-none-eabi/9.2.1/../../../../arm-none-eabi/lib/thumb/v7e-m+fp/hard/libc_nano.a(lib_a-nano-svfprintf.o)
memcmp                                            /usr/local/Caskroom/gcc-arm-embedded/9-2019-q4-major/gcc-arm-none-eabi-9-2019-q4-major/bin/../lib/gcc/arm-none-eabi/9.2.1/../../../../arm-none-eabi/lib/thumb/v7e-m+fp/hard/libc_nano.a(lib_a-memcmp.o)
                                                  build/FreeRTOS_IP.o
                                                  build/FreeRTOS_ARP.o
memcpy                                            /usr/local/Caskroom/gcc-arm-embedded/9-2019-q4-major/gcc-arm-none-eabi-9-2019-q4-major/bin/../lib/gcc/arm-none-eabi/9.2.1/../../../../arm-none-eabi/lib/thumb/v7e-m+fp/hard/libc_nano.a(lib_a-memcpy-stub.o)
                                                  /usr/local/Caskroom/gcc-arm-embedded/9-2019-q4-major/gcc-arm-none-eabi-9-2019-q4-major/bin/../lib/gcc/arm-none-eabi/9.2.1/../../../../arm-none-eabi/lib/thumb/v7e-m+fp/hard/libc_nano.a(lib_a-nano-reallocr.o)
                                                  /usr/local/Caskroom/gcc-arm-embedded/9-2019-q4-major/gcc-arm-none-eabi-9-2019-q4-major/bin/../lib/gcc/arm-none-eabi/9.2.1/../../../../arm-none-eabi/lib/thumb/v7e-m+fp/hard/libc_nano.a(lib_a-nano-svfprintf.o)
                                                  build/NetworkInterface.o
                                                  build/FreeRTOS_TCP_IP.o
                                                  build/FreeRTOS_Stream_Buffer.o
                                                  build/FreeRTOS_Sockets.o
                                                  build/FreeRTOS_IP.o
                                                  build/cmsis_os2.o
                                                  build/stream_buffer.o
                                                  build/queue.o
memmove                                           /usr/local/Caskroom/gcc-arm-embedded/9-2019-q4-major/gcc-arm-none-eabi-9-2019-q4-major/bin/../lib/gcc/arm-none-eabi/9.2.1/../../../../arm-none-eabi/lib/thumb/v7e-m+fp/hard/libc_nano.a(lib_a-memmove.o)
                                                  /usr/local/Caskroom/gcc-arm-embedded/9-2019-q4-major/gcc-arm-none-eabi-9-2019-q4-major/bin/../lib/gcc/arm-none-eabi/9.2.1/../../../../arm-none-eabi/lib/thumb/v7e-m+fp/hard/libc_nano.a(lib_a-nano-svfprintf.o)
                                                  build/FreeRTOS_IP.o
memset                                            /usr/local/Caskroom/gcc-arm-embedded/9-2019-q4-major/gcc-arm-none-eabi-9-2019-q4-major/bin/../lib/gcc/arm-none-eabi/9.2.1/../../../../arm-none-eabi/lib/thumb/v7e-m+fp/hard/libc_nano.a(lib_a-memset.o)
                                                  build/NetworkInterface.o
                                                  build/phyHandling.o
                                                  build/FreeRTOS_TCP_WIN.o
                                                  build/FreeRTOS_TCP_IP.o
                                                  build/FreeRTOS_Sockets.o
                                                  build/FreeRTOS_IP.o
                                                  build/FreeRTOS_DNS.o
                                                  build/FreeRTOS_ARP.o
                                                  build/logging.o
                                                  build/tasks.o
                                                  build/stream_buffer.o
                                                  build/stm32f7xx_hal_msp.o
                                                  build/main.o
                                                  /usr/local/Caskroom/gcc-arm-embedded/9-2019-q4-major/gcc-arm-none-eabi-9-2019-q4-major/bin/../lib/gcc/arm-none-eabi/9.2.1/../../../../arm-none-eabi/lib/thumb/v7e-m+fp/hard/crt0.o
mid_MsgQueue                                      build/logging.o
osDelay                                           build/cmsis_os2.o
                                                  build/main.o
osDelayUntil                                      build/cmsis_os2.o
osEventFlagsClear                                 build/cmsis_os2.o
osEventFlagsDelete                                build/cmsis_os2.o
osEventFlagsGet                                   build/cmsis_os2.o
osEventFlagsNew                                   build/cmsis_os2.o
osEventFlagsSet                                   build/cmsis_os2.o
osEventFlagsWait                                  build/cmsis_os2.o
osKernelGetInfo                                   build/cmsis_os2.o
osKernelGetState                                  build/cmsis_os2.o
osKernelGetSysTimerCount                          build/cmsis_os2.o
osKernelGetSysTimerFreq                           build/cmsis_os2.o
osKernelGetTickCount                              build/cmsis_os2.o
osKernelGetTickFreq                               build/cmsis_os2.o
osKernelInitialize                                build/cmsis_os2.o
                                                  build/main.o
osKernelLock                                      build/cmsis_os2.o
osKernelRestoreLock                               build/cmsis_os2.o
osKernelStart                                     build/cmsis_os2.o
                                                  build/main.o
osKernelUnlock                                    build/cmsis_os2.o
osMessageQueueDelete                              build/cmsis_os2.o
osMessageQueueGet                                 build/cmsis_os2.o
                                                  build/logging.o
osMessageQueueGetCapacity                         build/cmsis_os2.o
osMessageQueueGetCount                            build/cmsis_os2.o
osMessageQueueGetMsgSize                          build/cmsis_os2.o
osMessageQueueGetSpace                            build/cmsis_os2.o
osMessageQueueNew                                 build/cmsis_os2.o
                                                  build/logging.o
osMessageQueuePut                                 build/cmsis_os2.o
                                                  build/logging.o
osMessageQueueReset                               build/cmsis_os2.o
osMutexAcquire                                    build/cmsis_os2.o
osMutexDelete                                     build/cmsis_os2.o
osMutexGetOwner                                   build/cmsis_os2.o
osMutexNew                                        build/cmsis_os2.o
osMutexRelease                                    build/cmsis_os2.o
osSemaphoreAcquire                                build/cmsis_os2.o
osSemaphoreDelete                                 build/cmsis_os2.o
osSemaphoreGetCount                               build/cmsis_os2.o
osSemaphoreNew                                    build/cmsis_os2.o
osSemaphoreRelease                                build/cmsis_os2.o
osThreadEnumerate                                 build/cmsis_os2.o
osThreadExit                                      build/cmsis_os2.o
osThreadFlagsClear                                build/cmsis_os2.o
osThreadFlagsGet                                  build/cmsis_os2.o
osThreadFlagsSet                                  build/cmsis_os2.o
osThreadFlagsWait                                 build/cmsis_os2.o
osThreadGetCount                                  build/cmsis_os2.o
osThreadGetId                                     build/cmsis_os2.o
osThreadGetName                                   build/cmsis_os2.o
osThreadGetPriority                               build/cmsis_os2.o
osThreadGetStackSpace                             build/cmsis_os2.o
osThreadGetState                                  build/cmsis_os2.o
osThreadNew                                       build/cmsis_os2.o
                                                  build/logging.o
                                                  build/main.o
osThreadResume                                    build/cmsis_os2.o
osThreadSetPriority                               build/cmsis_os2.o
osThreadSuspend                                   build/cmsis_os2.o
osThreadTerminate                                 build/cmsis_os2.o
osThreadYield                                     build/cmsis_os2.o
osTimerDelete                                     build/cmsis_os2.o
osTimerGetName                                    build/cmsis_os2.o
osTimerIsRunning                                  build/cmsis_os2.o
osTimerNew                                        build/cmsis_os2.o
osTimerStart                                      build/cmsis_os2.o
osTimerStop                                       build/cmsis_os2.o
pcQueueGetName                                    build/queue.o
pcTaskGetName                                     build/tasks.o
                                                  build/cmsis_os2.o
pcTimerGetName                                    build/timers.o
                                                  build/cmsis_os2.o
pvPortMalloc                                      build/heap_4.o
                                                  build/FreeRTOS_TCP_WIN.o
                                                  build/FreeRTOS_Sockets.o
                                                  build/cmsis_os2.o
                                                  build/timers.o
                                                  build/tasks.o
                                                  build/stream_buffer.o
                                                  build/queue.o
                                                  build/event_groups.o
pvTaskIncrementMutexHeldCount                     build/tasks.o
                                                  build/queue.o
pvTimerGetTimerID                                 build/timers.o
                                                  build/cmsis_os2.o
pxCurrentTCB                                      build/tasks.o
                                                  build/port.o
pxDuplicateNetworkBufferWithDescriptor            build/FreeRTOS_IP.o
                                                  build/FreeRTOS_ARP.o
pxGetNetworkBufferWithDescriptor                  build/BufferAllocation_1.o
                                                  build/NetworkInterface.o
                                                  build/FreeRTOS_TCP_IP.o
                                                  build/FreeRTOS_Sockets.o
                                                  build/FreeRTOS_IP.o
                                                  build/FreeRTOS_DNS.o
                                                  build/FreeRTOS_ARP.o
pxNetworkBufferGetFromISR                         build/BufferAllocation_1.o
pxPortInitialiseStack                             build/port.o
                                                  build/tasks.o
pxResizeNetworkBufferWithDescriptor               build/BufferAllocation_1.o
pxTCPSocketLookup                                 build/FreeRTOS_Sockets.o
                                                  build/FreeRTOS_TCP_IP.o
pxUDPPayloadBuffer_to_NetworkBuffer               build/FreeRTOS_IP.o
                                                  build/FreeRTOS_Sockets.o
pxUDPSocketLookup                                 build/FreeRTOS_Sockets.o
                                                  build/FreeRTOS_UDP_IP.o
siprintf                                          /usr/local/Caskroom/gcc-arm-embedded/9-2019-q4-major/gcc-arm-none-eabi-9-2019-q4-major/bin/../lib/gcc/arm-none-eabi/9.2.1/../../../../arm-none-eabi/lib/thumb/v7e-m+fp/hard/libc_nano.a(lib_a-sprintf.o)
sniprintf                                         /usr/local/Caskroom/gcc-arm-embedded/9-2019-q4-major/gcc-arm-none-eabi-9-2019-q4-major/bin/../lib/gcc/arm-none-eabi/9.2.1/../../../../arm-none-eabi/lib/thumb/v7e-m+fp/hard/libc_nano.a(lib_a-snprintf.o)
snprintf                                          /usr/local/Caskroom/gcc-arm-embedded/9-2019-q4-major/gcc-arm-none-eabi-9-2019-q4-major/bin/../lib/gcc/arm-none-eabi/9.2.1/../../../../arm-none-eabi/lib/thumb/v7e-m+fp/hard/libc_nano.a(lib_a-snprintf.o)
                                                  build/FreeRTOS_Sockets.o
                                                  build/FreeRTOS_IP.o
software_init_hook                                /usr/local/Caskroom/gcc-arm-embedded/9-2019-q4-major/gcc-arm-none-eabi-9-2019-q4-major/bin/../lib/gcc/arm-none-eabi/9.2.1/../../../../arm-none-eabi/lib/thumb/v7e-m+fp/hard/crt0.o
sprintf                                           /usr/local/Caskroom/gcc-arm-embedded/9-2019-q4-major/gcc-arm-none-eabi-9-2019-q4-major/bin/../lib/gcc/arm-none-eabi/9.2.1/../../../../arm-none-eabi/lib/thumb/v7e-m+fp/hard/libc_nano.a(lib_a-sprintf.o)
                                                  build/tasks.o
strcmp                                            /usr/local/Caskroom/gcc-arm-embedded/9-2019-q4-major/gcc-arm-none-eabi-9-2019-q4-major/bin/../lib/gcc/arm-none-eabi/9.2.1/../../../../arm-none-eabi/lib/thumb/v7e-m+fp/hard/libc_nano.a(lib_a-strcmp.o)
                                                  build/FreeRTOS_DNS.o
strcpy                                            /usr/local/Caskroom/gcc-arm-embedded/9-2019-q4-major/gcc-arm-none-eabi-9-2019-q4-major/bin/../lib/gcc/arm-none-eabi/9.2.1/../../../../arm-none-eabi/lib/thumb/v7e-m+fp/hard/libc_nano.a(lib_a-strcpy.o)
                                                  build/FreeRTOS_DNS.o
                                                  build/tasks.o
strlen                                            /usr/local/Caskroom/gcc-arm-embedded/9-2019-q4-major/gcc-arm-none-eabi-9-2019-q4-major/bin/../lib/gcc/arm-none-eabi/9.2.1/../../../../arm-none-eabi/lib/thumb/v7e-m+fp/hard/libc_nano.a(lib_a-strlen.o)
                                                  build/FreeRTOS_DNS.o
                                                  build/tasks.o
tid_led                                           build/main.o
tid_logger                                        build/logging.o
tid_startup                                       build/main.o
ucQueueGetQueueType                               build/queue.o
ucStreamBufferGetStreamBufferType                 build/stream_buffer.o
ulApplicationGetNextSequenceNumber                build/freertos.o
                                                  build/FreeRTOS_TCP_IP.o
ulChar2u32                                        build/FreeRTOS_IP.o
                                                  build/FreeRTOS_TCP_IP.o
ulDNSHandlePacket                                 build/FreeRTOS_DNS.o
ulHighFrequencyTimerTicks                         build/freertos.o
                                                  build/stm32f7xx_it.o
ulTCPWindowTxAck                                  build/FreeRTOS_TCP_WIN.o
                                                  build/FreeRTOS_TCP_IP.o
ulTCPWindowTxGet                                  build/FreeRTOS_TCP_WIN.o
                                                  build/FreeRTOS_TCP_IP.o
ulTCPWindowTxSack                                 build/FreeRTOS_TCP_WIN.o
                                                  build/FreeRTOS_TCP_IP.o
ulTaskGenericNotifyTake                           build/tasks.o
                                                  build/NetworkInterface.o
ulTaskGenericNotifyValueClear                     build/tasks.o
usChar2u16                                        build/FreeRTOS_IP.o
                                                  build/FreeRTOS_TCP_IP.o
                                                  build/FreeRTOS_DNS.o
usGenerateChecksum                                build/FreeRTOS_IP.o
usGenerateProtocolChecksum                        build/FreeRTOS_IP.o
usPacketIdentifier                                build/FreeRTOS_IP.o
                                                  build/FreeRTOS_TCP_IP.o
uwTick                                            build/stm32f7xx_hal.o
uwTickFreq                                        build/stm32f7xx_hal.o
uwTickPrio                                        build/stm32f7xx_hal.o
                                                  build/stm32f7xx_hal_rcc.o
uxEventGroupGetNumber                             build/event_groups.o
uxGetMinimumFreeNetworkBuffers                    build/BufferAllocation_1.o
                                                  build/FreeRTOS_Sockets.o
                                                  build/FreeRTOS_IP.o
uxGetNumberOfFreeNetworkBuffers                   build/BufferAllocation_1.o
                                                  build/FreeRTOS_Sockets.o
                                                  build/FreeRTOS_IP.o
uxListRemove                                      build/list.o
                                                  build/BufferAllocation_1.o
                                                  build/FreeRTOS_TCP_WIN.o
                                                  build/FreeRTOS_Sockets.o
                                                  build/timers.o
                                                  build/tasks.o
uxQueueGetQueueNumber                             build/queue.o
uxQueueMessagesWaiting                            build/queue.o
                                                  build/NetworkInterface.o
                                                  build/FreeRTOS_IP.o
                                                  build/cmsis_os2.o
uxQueueMessagesWaitingFromISR                     build/queue.o
                                                  build/BufferAllocation_1.o
                                                  build/cmsis_os2.o
uxQueueSpacesAvailable                            build/queue.o
                                                  build/cmsis_os2.o
uxStreamBufferAdd                                 build/FreeRTOS_Stream_Buffer.o
                                                  build/FreeRTOS_Sockets.o
uxStreamBufferDistance                            build/FreeRTOS_Stream_Buffer.o
                                                  build/FreeRTOS_TCP_IP.o
uxStreamBufferFrontSpace                          build/FreeRTOS_Stream_Buffer.o
                                                  build/FreeRTOS_TCP_IP.o
                                                  build/FreeRTOS_Sockets.o
uxStreamBufferGet                                 build/FreeRTOS_Stream_Buffer.o
                                                  build/FreeRTOS_TCP_IP.o
                                                  build/FreeRTOS_Sockets.o
uxStreamBufferGetPtr                              build/FreeRTOS_Stream_Buffer.o
                                                  build/FreeRTOS_Sockets.o
uxStreamBufferGetSize                             build/FreeRTOS_Stream_Buffer.o
                                                  build/FreeRTOS_Sockets.o
uxStreamBufferGetSpace                            build/FreeRTOS_Stream_Buffer.o
                                                  build/FreeRTOS_TCP_IP.o
                                                  build/FreeRTOS_Sockets.o
uxStreamBufferGetStreamBufferNumber               build/stream_buffer.o
uxStreamBufferMidSpace                            build/FreeRTOS_Stream_Buffer.o
                                                  build/FreeRTOS_TCP_IP.o
uxStreamBufferSpace                               build/FreeRTOS_Stream_Buffer.o
uxTaskGetNumberOfTasks                            build/tasks.o
                                                  build/cmsis_os2.o
uxTaskGetStackHighWaterMark                       build/tasks.o
                                                  build/cmsis_os2.o
uxTaskGetSystemState                              build/tasks.o
                                                  build/cmsis_os2.o
uxTaskGetTaskNumber                               build/tasks.o
uxTaskPriorityGet                                 build/tasks.o
                                                  build/cmsis_os2.o
uxTaskPriorityGetFromISR                          build/tasks.o
uxTaskResetEventItemValue                         build/tasks.o
                                                  build/event_groups.o
uxTimerGetReloadMode                              build/timers.o
uxTimerGetTimerNumber                             build/timers.o
uxTopUsedPriority                                 build/tasks.o
vARPAgeCache                                      build/FreeRTOS_ARP.o
                                                  build/FreeRTOS_IP.o
vARPGenerateRequestPacket                         build/FreeRTOS_ARP.o
                                                  build/FreeRTOS_UDP_IP.o
vARPRefreshCacheEntry                             build/FreeRTOS_ARP.o
                                                  build/FreeRTOS_UDP_IP.o
                                                  build/FreeRTOS_IP.o
vARPSendGratuitous                                build/FreeRTOS_ARP.o
vApplicationGetIdleTaskMemory                     build/cmsis_os2.o
                                                  build/tasks.o
vApplicationGetTimerTaskMemory                    build/cmsis_os2.o
                                                  build/timers.o
vApplicationIPNetworkEventHook                    build/freertos.o
                                                  build/FreeRTOS_IP.o
vApplicationIdleHook                              build/freertos.o
vApplicationMallocFailedHook                      build/freertos.o
vApplicationPingReplyHook                         build/freertos.o
                                                  build/FreeRTOS_IP.o
vApplicationStackOverflowHook                     build/freertos.o
                                                  build/tasks.o
vApplicationTickHook                              build/freertos.o
vCastConstPointerTo_ARPPacket_t                   build/FreeRTOS_IP.o
vCastConstPointerTo_EthernetHeader_t              build/FreeRTOS_IP.o
vCastConstPointerTo_FreeRTOS_Socket_t             build/FreeRTOS_IP.o
                                                  build/FreeRTOS_Sockets.o
vCastConstPointerTo_ICMPHeader_t                  build/FreeRTOS_IP.o
vCastConstPointerTo_IPHeader_t                    build/FreeRTOS_IP.o
                                                  build/FreeRTOS_TCP_IP.o
vCastConstPointerTo_IPPacket_t                    build/FreeRTOS_IP.o
vCastConstPointerTo_ProtocolHeaders_t             build/FreeRTOS_IP.o
                                                  build/FreeRTOS_TCP_IP.o
vCastConstPointerTo_ProtocolPacket_t              build/FreeRTOS_IP.o
vCastConstPointerTo_SocketSelectMessage_t         build/FreeRTOS_IP.o
vCastConstPointerTo_SocketSelect_t                build/FreeRTOS_IP.o
vCastConstPointerTo_TCPPacket_t                   build/FreeRTOS_IP.o
                                                  build/FreeRTOS_TCP_IP.o
vCastConstPointerTo_UDPPacket_t                   build/FreeRTOS_IP.o
                                                  build/FreeRTOS_UDP_IP.o
vCastPointerTo_ARPPacket_t                        build/FreeRTOS_IP.o
                                                  build/FreeRTOS_ARP.o
vCastPointerTo_EthernetHeader_t                   build/FreeRTOS_IP.o
vCastPointerTo_FreeRTOS_Socket_t                  build/FreeRTOS_IP.o
                                                  build/FreeRTOS_TCP_IP.o
                                                  build/FreeRTOS_Sockets.o
vCastPointerTo_ICMPHeader_t                       build/FreeRTOS_IP.o
vCastPointerTo_ICMPPacket_t                       build/FreeRTOS_IP.o
vCastPointerTo_IPHeader_t                         build/FreeRTOS_IP.o
vCastPointerTo_IPPacket_t                         build/FreeRTOS_IP.o
                                                  build/FreeRTOS_ARP.o
vCastPointerTo_ProtocolHeaders_t                  build/FreeRTOS_IP.o
                                                  build/FreeRTOS_TCP_IP.o
vCastPointerTo_ProtocolPacket_t                   build/FreeRTOS_IP.o
vCastPointerTo_SocketSelectMessage_t              build/FreeRTOS_IP.o
vCastPointerTo_SocketSelect_t                     build/FreeRTOS_IP.o
                                                  build/FreeRTOS_Sockets.o
vCastPointerTo_TCPPacket_t                        build/FreeRTOS_IP.o
                                                  build/FreeRTOS_TCP_IP.o
vCastPointerTo_UDPPacket_t                        build/FreeRTOS_IP.o
                                                  build/FreeRTOS_UDP_IP.o
vEventGroupClearBitsCallback                      build/event_groups.o
vEventGroupDelete                                 build/event_groups.o
                                                  build/FreeRTOS_Sockets.o
                                                  build/FreeRTOS_IP.o
                                                  build/cmsis_os2.o
vEventGroupSetBitsCallback                        build/event_groups.o
vEventGroupSetNumber                              build/event_groups.o
vIPNetworkUpCalls                                 build/FreeRTOS_IP.o
vListInitialise                                   build/list.o
                                                  build/BufferAllocation_1.o
                                                  build/FreeRTOS_TCP_WIN.o
                                                  build/FreeRTOS_Sockets.o
                                                  build/timers.o
                                                  build/tasks.o
                                                  build/queue.o
                                                  build/event_groups.o
vListInitialiseItem                               build/list.o
                                                  build/BufferAllocation_1.o
                                                  build/FreeRTOS_Sockets.o
                                                  build/timers.o
                                                  build/tasks.o
vListInsert                                       build/list.o
                                                  build/BufferAllocation_1.o
                                                  build/timers.o
                                                  build/tasks.o
vListInsertEnd                                    build/list.o
                                                  build/BufferAllocation_1.o
                                                  build/FreeRTOS_UDP_IP.o
                                                  build/FreeRTOS_Sockets.o
                                                  build/tasks.o
vLoggingInit                                      build/logging.o
                                                  build/main.o
vLoggingPrintf                                    build/logging.o
                                                  build/NetworkInterface.o
                                                  build/phyHandling.o
                                                  build/FreeRTOS_TCP_IP.o
                                                  build/FreeRTOS_Sockets.o
                                                  build/FreeRTOS_IP.o
                                                  build/FreeRTOS_DNS.o
                                                  build/FreeRTOS_ARP.o
                                                  build/freertos.o
                                                  build/main.o
vMACBProbePhy                                     build/NetworkInterface.o
                                                  build/stm32fxx_hal_eth.o
vNetworkBufferReleaseFromISR                      build/BufferAllocation_1.o
vNetworkInterfaceAllocateRAMToBuffers             build/NetworkInterface.o
                                                  build/BufferAllocation_1.o
vNetworkSocketsInit                               build/FreeRTOS_Sockets.o
                                                  build/FreeRTOS_IP.o
vPhyInitialise                                    build/phyHandling.o
                                                  build/NetworkInterface.o
vPortEndScheduler                                 build/port.o
                                                  build/tasks.o
vPortEnterCritical                                build/port.o
                                                  build/BufferAllocation_1.o
                                                  build/FreeRTOS_UDP_IP.o
                                                  build/FreeRTOS_Sockets.o
                                                  build/heap_4.o
                                                  build/timers.o
                                                  build/tasks.o
                                                  build/stream_buffer.o
                                                  build/queue.o
                                                  build/event_groups.o
vPortExitCritical                                 build/port.o
                                                  build/BufferAllocation_1.o
                                                  build/FreeRTOS_UDP_IP.o
                                                  build/FreeRTOS_Sockets.o
                                                  build/heap_4.o
                                                  build/timers.o
                                                  build/tasks.o
                                                  build/stream_buffer.o
                                                  build/queue.o
                                                  build/event_groups.o
vPortFree                                         build/heap_4.o
                                                  build/FreeRTOS_TCP_WIN.o
                                                  build/FreeRTOS_Sockets.o
                                                  build/FreeRTOS_IP.o
                                                  build/cmsis_os2.o
                                                  build/timers.o
                                                  build/tasks.o
                                                  build/stream_buffer.o
                                                  build/queue.o
                                                  build/event_groups.o
vPortGetHeapStats                                 build/heap_4.o
vPortInitialiseBlocks                             build/heap_4.o
vPortSetupTimerInterrupt                          build/port.o
vPortValidateInterruptPriority                    build/port.o
                                                  build/tasks.o
                                                  build/queue.o
vPrintResourceStats                               build/FreeRTOS_IP.o
                                                  build/NetworkInterface.o
vProcessGeneratedUDPPacket                        build/FreeRTOS_UDP_IP.o
                                                  build/FreeRTOS_IP.o
vQueueAddToRegistry                               build/queue.o
                                                  build/FreeRTOS_IP.o
                                                  build/cmsis_os2.o
                                                  build/timers.o
vQueueDelete                                      build/queue.o
                                                  build/FreeRTOS_IP.o
                                                  build/cmsis_os2.o
vQueueSetQueueNumber                              build/queue.o
vQueueUnregisterQueue                             build/queue.o
                                                  build/cmsis_os2.o
vQueueWaitForMessageRestricted                    build/queue.o
                                                  build/timers.o
vReleaseNetworkBufferAndDescriptor                build/BufferAllocation_1.o
                                                  build/NetworkInterface.o
                                                  build/FreeRTOS_UDP_IP.o
                                                  build/FreeRTOS_TCP_IP.o
                                                  build/FreeRTOS_Sockets.o
                                                  build/FreeRTOS_IP.o
                                                  build/FreeRTOS_DNS.o
                                                  build/FreeRTOS_ARP.o
vReturnEthernetFrame                              build/FreeRTOS_IP.o
vSetMultiCastIPv4MacAddress                       build/FreeRTOS_IP.o
                                                  build/FreeRTOS_ARP.o
vSocketBind                                       build/FreeRTOS_Sockets.o
                                                  build/FreeRTOS_TCP_IP.o
                                                  build/FreeRTOS_IP.o
vSocketClose                                      build/FreeRTOS_Sockets.o
                                                  build/FreeRTOS_TCP_IP.o
                                                  build/FreeRTOS_IP.o
vSocketCloseNextTime                              build/FreeRTOS_TCP_IP.o
                                                  build/FreeRTOS_IP.o
vSocketSelect                                     build/FreeRTOS_Sockets.o
                                                  build/FreeRTOS_IP.o
vSocketWakeUpUser                                 build/FreeRTOS_Sockets.o
                                                  build/FreeRTOS_TCP_IP.o
                                                  build/FreeRTOS_IP.o
vStreamBufferClear                                build/FreeRTOS_Stream_Buffer.o
                                                  build/FreeRTOS_Sockets.o
vStreamBufferDelete                               build/stream_buffer.o
vStreamBufferMoveMid                              build/FreeRTOS_Stream_Buffer.o
                                                  build/FreeRTOS_TCP_IP.o
vStreamBufferSetStreamBufferNumber                build/stream_buffer.o
vTCPNetStat                                       build/FreeRTOS_Sockets.o
                                                  build/FreeRTOS_IP.o
vTCPSegmentCleanup                                build/FreeRTOS_TCP_WIN.o
vTCPStateChange                                   build/FreeRTOS_TCP_IP.o
                                                  build/FreeRTOS_Sockets.o
vTCPWindowCreate                                  build/FreeRTOS_TCP_WIN.o
                                                  build/FreeRTOS_TCP_IP.o
vTCPWindowDestroy                                 build/FreeRTOS_TCP_WIN.o
                                                  build/FreeRTOS_Sockets.o
vTCPWindowInit                                    build/FreeRTOS_TCP_WIN.o
                                                  build/FreeRTOS_TCP_IP.o
vTaskDelay                                        build/tasks.o
                                                  build/phyHandling.o
                                                  build/FreeRTOS_IP.o
                                                  build/FreeRTOS_ARP.o
                                                  build/cmsis_os2.o
vTaskDelete                                       build/tasks.o
                                                  build/cmsis_os2.o
vTaskEndScheduler                                 build/tasks.o
vTaskGenericNotifyGiveFromISR                     build/tasks.o
                                                  build/NetworkInterface.o
vTaskGetInfo                                      build/tasks.o
vTaskGetRunTimeStats                              build/tasks.o
vTaskInternalSetTimeOutState                      build/tasks.o
                                                  build/queue.o
vTaskList                                         build/tasks.o
vTaskMissedYield                                  build/tasks.o
                                                  build/queue.o
vTaskPlaceOnEventList                             build/tasks.o
                                                  build/queue.o
vTaskPlaceOnEventListRestricted                   build/tasks.o
                                                  build/queue.o
vTaskPlaceOnUnorderedEventList                    build/tasks.o
                                                  build/event_groups.o
vTaskPriorityDisinheritAfterTimeout               build/tasks.o
                                                  build/queue.o
vTaskPrioritySet                                  build/tasks.o
                                                  build/cmsis_os2.o
vTaskRemoveFromUnorderedEventList                 build/tasks.o
                                                  build/event_groups.o
vTaskResume                                       build/tasks.o
                                                  build/cmsis_os2.o
vTaskSetTaskNumber                                build/tasks.o
vTaskSetTimeOutState                              build/tasks.o
                                                  build/phyHandling.o
                                                  build/FreeRTOS_Sockets.o
                                                  build/FreeRTOS_IP.o
                                                  build/FreeRTOS_ARP.o
                                                  build/stream_buffer.o
vTaskStartScheduler                               build/tasks.o
                                                  build/cmsis_os2.o
vTaskSuspend                                      build/tasks.o
                                                  build/cmsis_os2.o
vTaskSuspendAll                                   build/tasks.o
                                                  build/FreeRTOS_UDP_IP.o
                                                  build/FreeRTOS_Sockets.o
                                                  build/cmsis_os2.o
                                                  build/heap_4.o
                                                  build/timers.o
                                                  build/stream_buffer.o
                                                  build/queue.o
                                                  build/event_groups.o
vTaskSwitchContext                                build/tasks.o
                                                  build/port.o
vTimerSetReloadMode                               build/timers.o
vTimerSetTimerID                                  build/timers.o
vTimerSetTimerNumber                              build/timers.o
vsniprintf                                        /usr/local/Caskroom/gcc-arm-embedded/9-2019-q4-major/gcc-arm-none-eabi-9-2019-q4-major/bin/../lib/gcc/arm-none-eabi/9.2.1/../../../../arm-none-eabi/lib/thumb/v7e-m+fp/hard/libc_nano.a(lib_a-vsnprintf.o)
vsnprintf                                         /usr/local/Caskroom/gcc-arm-embedded/9-2019-q4-major/gcc-arm-none-eabi-9-2019-q4-major/bin/../lib/gcc/arm-none-eabi/9.2.1/../../../../arm-none-eabi/lib/thumb/v7e-m+fp/hard/libc_nano.a(lib_a-vsnprintf.o)
                                                  build/logging.o
xARPWaitResolution                                build/FreeRTOS_ARP.o
xApplicationGetRandomNumber                       build/freertos.o
                                                  build/FreeRTOS_Sockets.o
                                                  build/FreeRTOS_DNS.o
xBoundTCPSocketsList                              build/FreeRTOS_Sockets.o
                                                  build/FreeRTOS_TCP_IP.o
xBoundUDPSocketsList                              build/FreeRTOS_Sockets.o
xBroadcastMACAddress                              build/FreeRTOS_IP.o
                                                  build/FreeRTOS_ARP.o
xBufferAllocFixedSize                             build/BufferAllocation_1.o
                                                  build/FreeRTOS_TCP_IP.o
xCheckLoopback                                    build/FreeRTOS_ARP.o
xDefaultAddressing                                build/FreeRTOS_IP.o
xDefaultPartUDPPacketHeader                       build/FreeRTOS_UDP_IP.o
                                                  build/FreeRTOS_TCP_IP.o
                                                  build/FreeRTOS_Sockets.o
                                                  build/FreeRTOS_IP.o
                                                  build/FreeRTOS_ARP.o
xEventGroupClearBits                              build/event_groups.o
                                                  build/FreeRTOS_Sockets.o
                                                  build/cmsis_os2.o
xEventGroupClearBitsFromISR                       build/event_groups.o
                                                  build/cmsis_os2.o
xEventGroupCreate                                 build/event_groups.o
                                                  build/FreeRTOS_Sockets.o
                                                  build/cmsis_os2.o
xEventGroupCreateStatic                           build/event_groups.o
                                                  build/cmsis_os2.o
xEventGroupGetBitsFromISR                         build/event_groups.o
                                                  build/cmsis_os2.o
xEventGroupSetBits                                build/event_groups.o
                                                  build/FreeRTOS_UDP_IP.o
                                                  build/FreeRTOS_Sockets.o
                                                  build/cmsis_os2.o
xEventGroupSetBitsFromISR                         build/event_groups.o
                                                  build/cmsis_os2.o
xEventGroupSync                                   build/event_groups.o
xEventGroupWaitBits                               build/event_groups.o
                                                  build/FreeRTOS_Sockets.o
                                                  build/cmsis_os2.o
xGetPhyLinkStatus                                 build/NetworkInterface.o
xIPIsNetworkTaskReady                             build/FreeRTOS_IP.o
                                                  build/FreeRTOS_Sockets.o
xIsCallingFromIPTask                              build/FreeRTOS_IP.o
                                                  build/FreeRTOS_TCP_IP.o
                                                  build/FreeRTOS_Sockets.o
                                                  build/FreeRTOS_ARP.o
xIsIPv4Multicast                                  build/FreeRTOS_IP.o
                                                  build/FreeRTOS_ARP.o
xLogToSWO                                         build/main.o
xLogToUART                                        build/main.o
xLogToUDP                                         build/main.o
xNetworkAddressing                                build/FreeRTOS_IP.o
                                                  build/FreeRTOS_TCP_IP.o
                                                  build/FreeRTOS_ARP.o
xNetworkBuffersInitialise                         build/BufferAllocation_1.o
                                                  build/FreeRTOS_IP.o
xNetworkEventQueue                                build/FreeRTOS_IP.o
xNetworkInterfaceInitialise                       build/NetworkInterface.o
                                                  build/FreeRTOS_IP.o
xNetworkInterfaceOutput                           build/NetworkInterface.o
                                                  build/FreeRTOS_UDP_IP.o
                                                  build/FreeRTOS_TCP_IP.o
                                                  build/FreeRTOS_IP.o
                                                  build/FreeRTOS_ARP.o
xPHYProperties                                    build/NetworkInterface.o
xPhyCheckLinkStatus                               build/phyHandling.o
                                                  build/NetworkInterface.o
xPhyConfigure                                     build/phyHandling.o
                                                  build/NetworkInterface.o
xPhyDiscover                                      build/phyHandling.o
                                                  build/NetworkInterface.o
xPhyFixedValue                                    build/phyHandling.o
                                                  build/NetworkInterface.o
xPhyStartAutoNegotiation                          build/phyHandling.o
                                                  build/NetworkInterface.o
xPortGetFreeHeapSize                              build/heap_4.o
                                                  build/FreeRTOS_IP.o
                                                  build/freertos.o
xPortGetMinimumEverFreeHeapSize                   build/heap_4.o
                                                  build/FreeRTOS_IP.o
xPortStartScheduler                               build/port.o
                                                  build/tasks.o
xPortSysTickHandler                               build/port.o
                                                  build/stm32f7xx_it.o
xPrintSocket                                      build/logging.o
xPrintUDPAddress                                  build/logging.o
xProcessReceivedTCPPacket                         build/FreeRTOS_TCP_IP.o
                                                  build/FreeRTOS_IP.o
xProcessReceivedUDPPacket                         build/FreeRTOS_UDP_IP.o
                                                  build/FreeRTOS_IP.o
xQueueCreateCountingSemaphore                     build/queue.o
                                                  build/NetworkInterface.o
                                                  build/cmsis_os2.o
xQueueCreateCountingSemaphoreStatic               build/queue.o
                                                  build/BufferAllocation_1.o
                                                  build/cmsis_os2.o
xQueueCreateMutex                                 build/queue.o
                                                  build/cmsis_os2.o
xQueueCreateMutexStatic                           build/queue.o
                                                  build/cmsis_os2.o
xQueueGenericCreate                               build/queue.o
                                                  build/cmsis_os2.o
xQueueGenericCreateStatic                         build/queue.o
                                                  build/FreeRTOS_IP.o
                                                  build/cmsis_os2.o
                                                  build/timers.o
xQueueGenericReset                                build/queue.o
                                                  build/cmsis_os2.o
xQueueGenericSend                                 build/queue.o
                                                  build/NetworkInterface.o
                                                  build/BufferAllocation_1.o
                                                  build/FreeRTOS_IP.o
                                                  build/cmsis_os2.o
                                                  build/timers.o
xQueueGenericSendFromISR                          build/queue.o
                                                  build/FreeRTOS_IP.o
                                                  build/cmsis_os2.o
                                                  build/timers.o
xQueueGetMutexHolder                              build/queue.o
                                                  build/cmsis_os2.o
xQueueGetMutexHolderFromISR                       build/queue.o
xQueueGiveFromISR                                 build/queue.o
                                                  build/BufferAllocation_1.o
                                                  build/cmsis_os2.o
xQueueGiveMutexRecursive                          build/queue.o
                                                  build/cmsis_os2.o
xQueueIsQueueEmptyFromISR                         build/queue.o
xQueueIsQueueFullFromISR                          build/queue.o
xQueuePeek                                        build/queue.o
xQueuePeekFromISR                                 build/queue.o
xQueueReceive                                     build/queue.o
                                                  build/FreeRTOS_IP.o
                                                  build/cmsis_os2.o
                                                  build/timers.o
xQueueReceiveFromISR                              build/queue.o
                                                  build/BufferAllocation_1.o
                                                  build/cmsis_os2.o
xQueueRegistry                                    build/queue.o
xQueueSemaphoreTake                               build/queue.o
                                                  build/NetworkInterface.o
                                                  build/BufferAllocation_1.o
                                                  build/cmsis_os2.o
xQueueTakeMutexRecursive                          build/queue.o
                                                  build/cmsis_os2.o
xReadPhyBasicStatus                               build/NetworkInterface.o
xSTM32_PhyRead                                    build/NetworkInterface.o
xSTM32_PhyWrite                                   build/NetworkInterface.o
xSWOLoggingUsed                                   build/logging.o
xSendEventStructToIPTask                          build/FreeRTOS_IP.o
                                                  build/NetworkInterface.o
                                                  build/FreeRTOS_Sockets.o
                                                  build/FreeRTOS_ARP.o
xSendEventToIPTask                                build/FreeRTOS_IP.o
                                                  build/FreeRTOS_Sockets.o
                                                  build/FreeRTOS_ARP.o
xSequenceGreaterThan                              build/FreeRTOS_TCP_WIN.o
                                                  build/FreeRTOS_TCP_IP.o
xSequenceLessThan                                 build/FreeRTOS_TCP_WIN.o
                                                  build/FreeRTOS_TCP_IP.o
xSocketValid                                      build/FreeRTOS_Sockets.o
                                                  build/FreeRTOS_DNS.o
xStreamBufferBytesAvailable                       build/stream_buffer.o
xStreamBufferGenericCreate                        build/stream_buffer.o
xStreamBufferGenericCreateStatic                  build/stream_buffer.o
xStreamBufferIsEmpty                              build/stream_buffer.o
xStreamBufferIsFull                               build/stream_buffer.o
xStreamBufferLessThenEqual                        build/FreeRTOS_Stream_Buffer.o
xStreamBufferNextMessageLengthBytes               build/stream_buffer.o
xStreamBufferReceive                              build/stream_buffer.o
xStreamBufferReceiveCompletedFromISR              build/stream_buffer.o
xStreamBufferReceiveFromISR                       build/stream_buffer.o
xStreamBufferReset                                build/stream_buffer.o
xStreamBufferSend                                 build/stream_buffer.o
xStreamBufferSendCompletedFromISR                 build/stream_buffer.o
xStreamBufferSendFromISR                          build/stream_buffer.o
xStreamBufferSetTriggerLevel                      build/stream_buffer.o
xStreamBufferSpacesAvailable                      build/stream_buffer.o
xTCPCheckNewClient                                build/FreeRTOS_TCP_IP.o
                                                  build/FreeRTOS_IP.o
xTCPSocketCheck                                   build/FreeRTOS_TCP_IP.o
                                                  build/FreeRTOS_Sockets.o
xTCPTimerCheck                                    build/FreeRTOS_Sockets.o
                                                  build/FreeRTOS_IP.o
xTCPWindowLoggingLevel                            build/FreeRTOS_TCP_WIN.o
xTCPWindowRxEmpty                                 build/FreeRTOS_TCP_WIN.o
                                                  build/FreeRTOS_TCP_IP.o
xTCPWindowTxDone                                  build/FreeRTOS_TCP_WIN.o
                                                  build/FreeRTOS_TCP_IP.o
xTCPWindowTxHasData                               build/FreeRTOS_TCP_WIN.o
                                                  build/FreeRTOS_TCP_IP.o
xTaskCatchUpTicks                                 build/tasks.o
xTaskCheckForTimeOut                              build/tasks.o
                                                  build/phyHandling.o
                                                  build/FreeRTOS_Sockets.o
                                                  build/FreeRTOS_IP.o
                                                  build/FreeRTOS_ARP.o
                                                  build/stream_buffer.o
                                                  build/queue.o
xTaskCreate                                       build/tasks.o
                                                  build/NetworkInterface.o
                                                  build/cmsis_os2.o
xTaskCreateStatic                                 build/tasks.o
                                                  build/FreeRTOS_IP.o
                                                  build/cmsis_os2.o
                                                  build/timers.o
xTaskDelayUntil                                   build/tasks.o
                                                  build/cmsis_os2.o
xTaskGenericNotify                                build/tasks.o
                                                  build/cmsis_os2.o
                                                  build/stream_buffer.o
xTaskGenericNotifyFromISR                         build/tasks.o
                                                  build/cmsis_os2.o
                                                  build/stream_buffer.o
xTaskGenericNotifyStateClear                      build/tasks.o
                                                  build/stream_buffer.o
xTaskGenericNotifyWait                            build/tasks.o
                                                  build/cmsis_os2.o
                                                  build/stream_buffer.o
xTaskGetCurrentTaskHandle                         build/tasks.o
                                                  build/FreeRTOS_IP.o
                                                  build/cmsis_os2.o
                                                  build/stream_buffer.o
                                                  build/queue.o
xTaskGetSchedulerState                            build/tasks.o
                                                  build/logging.o
                                                  build/cmsis_os2.o
                                                  build/timers.o
                                                  build/queue.o
                                                  build/event_groups.o
                                                  build/stm32f7xx_it.o
xTaskGetTickCount                                 build/tasks.o
                                                  build/FreeRTOS_TCP_WIN.o
                                                  build/FreeRTOS_TCP_IP.o
                                                  build/FreeRTOS_Sockets.o
                                                  build/FreeRTOS_DNS.o
                                                  build/FreeRTOS_ARP.o
                                                  build/cmsis_os2.o
                                                  build/timers.o
xTaskGetTickCountFromISR                          build/tasks.o
                                                  build/cmsis_os2.o
xTaskIncrementTick                                build/tasks.o
                                                  build/port.o
xTaskPriorityDisinherit                           build/tasks.o
                                                  build/queue.o
xTaskPriorityInherit                              build/tasks.o
                                                  build/queue.o
xTaskRemoveFromEventList                          build/tasks.o
                                                  build/queue.o
xTaskResumeAll                                    build/tasks.o
                                                  build/FreeRTOS_UDP_IP.o
                                                  build/FreeRTOS_Sockets.o
                                                  build/cmsis_os2.o
                                                  build/heap_4.o
                                                  build/timers.o
                                                  build/stream_buffer.o
                                                  build/queue.o
                                                  build/event_groups.o
xTaskResumeFromISR                                build/tasks.o
xTimerCreate                                      build/timers.o
                                                  build/cmsis_os2.o
xTimerCreateStatic                                build/timers.o
                                                  build/cmsis_os2.o
xTimerCreateTimerTask                             build/timers.o
                                                  build/tasks.o
xTimerGenericCommand                              build/timers.o
                                                  build/cmsis_os2.o
xTimerGetExpiryTime                               build/timers.o
xTimerGetPeriod                                   build/timers.o
xTimerGetTimerDaemonTaskHandle                    build/timers.o
xTimerIsTimerActive                               build/timers.o
                                                  build/cmsis_os2.o
xTimerPendFunctionCall                            build/timers.o
                                                  build/logging.o
xTimerPendFunctionCallFromISR                     build/timers.o
                                                  build/event_groups.o
xUARTLoggingUsed                                  build/logging.o
xUDPLoggingUsed                                   build/logging.o
